
benchmark-test：     文件格式 elf64-x86-64


Disassembly of section .init:

0000000000402070 <_init>:
  402070:	48 83 ec 08          	sub    rsp,0x8
  402074:	48 8b 05 6d cf 23 00 	mov    rax,QWORD PTR [rip+0x23cf6d]        # 63efe8 <__gmon_start__>
  40207b:	48 85 c0             	test   rax,rax
  40207e:	74 05                	je     402085 <_init+0x15>
  402080:	e8 ab 00 00 00       	call   402130 <__gmon_start__@plt>
  402085:	48 83 c4 08          	add    rsp,0x8
  402089:	c3                   	ret    

Disassembly of section .plt:

0000000000402090 <.plt>:
  402090:	ff 35 72 cf 23 00    	push   QWORD PTR [rip+0x23cf72]        # 63f008 <_GLOBAL_OFFSET_TABLE_+0x8>
  402096:	ff 25 74 cf 23 00    	jmp    QWORD PTR [rip+0x23cf74]        # 63f010 <_GLOBAL_OFFSET_TABLE_+0x10>
  40209c:	0f 1f 40 00          	nop    DWORD PTR [rax+0x0]

00000000004020a0 <printf@plt>:
  4020a0:	ff 25 72 cf 23 00    	jmp    QWORD PTR [rip+0x23cf72]        # 63f018 <printf@GLIBC_2.2.5>
  4020a6:	68 00 00 00 00       	push   0x0
  4020ab:	e9 e0 ff ff ff       	jmp    402090 <.plt>

00000000004020b0 <free@plt>:
  4020b0:	ff 25 6a cf 23 00    	jmp    QWORD PTR [rip+0x23cf6a]        # 63f020 <free@GLIBC_2.2.5>
  4020b6:	68 01 00 00 00       	push   0x1
  4020bb:	e9 d0 ff ff ff       	jmp    402090 <.plt>

00000000004020c0 <__vsnprintf_chk@plt>:
  4020c0:	ff 25 62 cf 23 00    	jmp    QWORD PTR [rip+0x23cf62]        # 63f028 <__vsnprintf_chk@GLIBC_2.3.4>
  4020c6:	68 02 00 00 00       	push   0x2
  4020cb:	e9 c0 ff ff ff       	jmp    402090 <.plt>

00000000004020d0 <__fprintf_chk@plt>:
  4020d0:	ff 25 5a cf 23 00    	jmp    QWORD PTR [rip+0x23cf5a]        # 63f030 <__fprintf_chk@GLIBC_2.3.4>
  4020d6:	68 03 00 00 00       	push   0x3
  4020db:	e9 b0 ff ff ff       	jmp    402090 <.plt>

00000000004020e0 <__stack_chk_fail@plt>:
  4020e0:	ff 25 52 cf 23 00    	jmp    QWORD PTR [rip+0x23cf52]        # 63f038 <__stack_chk_fail@GLIBC_2.4>
  4020e6:	68 04 00 00 00       	push   0x4
  4020eb:	e9 a0 ff ff ff       	jmp    402090 <.plt>

00000000004020f0 <perror@plt>:
  4020f0:	ff 25 4a cf 23 00    	jmp    QWORD PTR [rip+0x23cf4a]        # 63f040 <perror@GLIBC_2.2.5>
  4020f6:	68 05 00 00 00       	push   0x5
  4020fb:	e9 90 ff ff ff       	jmp    402090 <.plt>

0000000000402100 <memset@plt>:
  402100:	ff 25 42 cf 23 00    	jmp    QWORD PTR [rip+0x23cf42]        # 63f048 <memset@GLIBC_2.2.5>
  402106:	68 06 00 00 00       	push   0x6
  40210b:	e9 80 ff ff ff       	jmp    402090 <.plt>

0000000000402110 <fputs@plt>:
  402110:	ff 25 3a cf 23 00    	jmp    QWORD PTR [rip+0x23cf3a]        # 63f050 <fputs@GLIBC_2.2.5>
  402116:	68 07 00 00 00       	push   0x7
  40211b:	e9 70 ff ff ff       	jmp    402090 <.plt>

0000000000402120 <__strncpy_chk@plt>:
  402120:	ff 25 32 cf 23 00    	jmp    QWORD PTR [rip+0x23cf32]        # 63f058 <__strncpy_chk@GLIBC_2.3.4>
  402126:	68 08 00 00 00       	push   0x8
  40212b:	e9 60 ff ff ff       	jmp    402090 <.plt>

0000000000402130 <__gmon_start__@plt>:
  402130:	ff 25 2a cf 23 00    	jmp    QWORD PTR [rip+0x23cf2a]        # 63f060 <__gmon_start__>
  402136:	68 09 00 00 00       	push   0x9
  40213b:	e9 50 ff ff ff       	jmp    402090 <.plt>

0000000000402140 <strlen@plt>:
  402140:	ff 25 22 cf 23 00    	jmp    QWORD PTR [rip+0x23cf22]        # 63f068 <strlen@GLIBC_2.2.5>
  402146:	68 0a 00 00 00       	push   0xa
  40214b:	e9 40 ff ff ff       	jmp    402090 <.plt>

0000000000402150 <gettimeofday@plt>:
  402150:	ff 25 1a cf 23 00    	jmp    QWORD PTR [rip+0x23cf1a]        # 63f070 <gettimeofday@GLIBC_2.2.5>
  402156:	68 0b 00 00 00       	push   0xb
  40215b:	e9 30 ff ff ff       	jmp    402090 <.plt>

0000000000402160 <strchr@plt>:
  402160:	ff 25 12 cf 23 00    	jmp    QWORD PTR [rip+0x23cf12]        # 63f078 <strchr@GLIBC_2.2.5>
  402166:	68 0c 00 00 00       	push   0xc
  40216b:	e9 20 ff ff ff       	jmp    402090 <.plt>

0000000000402170 <setenv@plt>:
  402170:	ff 25 0a cf 23 00    	jmp    QWORD PTR [rip+0x23cf0a]        # 63f080 <setenv@GLIBC_2.2.5>
  402176:	68 0d 00 00 00       	push   0xd
  40217b:	e9 10 ff ff ff       	jmp    402090 <.plt>

0000000000402180 <exit@plt>:
  402180:	ff 25 02 cf 23 00    	jmp    QWORD PTR [rip+0x23cf02]        # 63f088 <exit@GLIBC_2.2.5>
  402186:	68 0e 00 00 00       	push   0xe
  40218b:	e9 00 ff ff ff       	jmp    402090 <.plt>

0000000000402190 <__strncat_chk@plt>:
  402190:	ff 25 fa ce 23 00    	jmp    QWORD PTR [rip+0x23cefa]        # 63f090 <__strncat_chk@GLIBC_2.3.4>
  402196:	68 0f 00 00 00       	push   0xf
  40219b:	e9 f0 fe ff ff       	jmp    402090 <.plt>

00000000004021a0 <time@plt>:
  4021a0:	ff 25 f2 ce 23 00    	jmp    QWORD PTR [rip+0x23cef2]        # 63f098 <time@GLIBC_2.2.5>
  4021a6:	68 10 00 00 00       	push   0x10
  4021ab:	e9 e0 fe ff ff       	jmp    402090 <.plt>

00000000004021b0 <getenv@plt>:
  4021b0:	ff 25 ea ce 23 00    	jmp    QWORD PTR [rip+0x23ceea]        # 63f0a0 <getenv@GLIBC_2.2.5>
  4021b6:	68 11 00 00 00       	push   0x11
  4021bb:	e9 d0 fe ff ff       	jmp    402090 <.plt>

00000000004021c0 <catgets@plt>:
  4021c0:	ff 25 e2 ce 23 00    	jmp    QWORD PTR [rip+0x23cee2]        # 63f0a8 <catgets@GLIBC_2.2.5>
  4021c6:	68 12 00 00 00       	push   0x12
  4021cb:	e9 c0 fe ff ff       	jmp    402090 <.plt>

00000000004021d0 <sgemm_@plt>:
  4021d0:	ff 25 da ce 23 00    	jmp    QWORD PTR [rip+0x23ceda]        # 63f0b0 <sgemm_>
  4021d6:	68 13 00 00 00       	push   0x13
  4021db:	e9 b0 fe ff ff       	jmp    402090 <.plt>

00000000004021e0 <malloc@plt>:
  4021e0:	ff 25 d2 ce 23 00    	jmp    QWORD PTR [rip+0x23ced2]        # 63f0b8 <malloc@GLIBC_2.2.5>
  4021e6:	68 14 00 00 00       	push   0x14
  4021eb:	e9 a0 fe ff ff       	jmp    402090 <.plt>

00000000004021f0 <__libc_start_main@plt>:
  4021f0:	ff 25 ca ce 23 00    	jmp    QWORD PTR [rip+0x23ceca]        # 63f0c0 <__libc_start_main@GLIBC_2.2.5>
  4021f6:	68 15 00 00 00       	push   0x15
  4021fb:	e9 90 fe ff ff       	jmp    402090 <.plt>

0000000000402200 <rand@plt>:
  402200:	ff 25 c2 ce 23 00    	jmp    QWORD PTR [rip+0x23cec2]        # 63f0c8 <rand@GLIBC_2.2.5>
  402206:	68 16 00 00 00       	push   0x16
  40220b:	e9 80 fe ff ff       	jmp    402090 <.plt>

0000000000402210 <__errno_location@plt>:
  402210:	ff 25 ba ce 23 00    	jmp    QWORD PTR [rip+0x23ceba]        # 63f0d0 <__errno_location@GLIBC_2.2.5>
  402216:	68 17 00 00 00       	push   0x17
  40221b:	e9 70 fe ff ff       	jmp    402090 <.plt>

0000000000402220 <__printf_chk@plt>:
  402220:	ff 25 b2 ce 23 00    	jmp    QWORD PTR [rip+0x23ceb2]        # 63f0d8 <__printf_chk@GLIBC_2.3.4>
  402226:	68 18 00 00 00       	push   0x18
  40222b:	e9 60 fe ff ff       	jmp    402090 <.plt>

0000000000402230 <catopen@plt>:
  402230:	ff 25 aa ce 23 00    	jmp    QWORD PTR [rip+0x23ceaa]        # 63f0e0 <catopen@GLIBC_2.2.5>
  402236:	68 19 00 00 00       	push   0x19
  40223b:	e9 50 fe ff ff       	jmp    402090 <.plt>

0000000000402240 <srand@plt>:
  402240:	ff 25 a2 ce 23 00    	jmp    QWORD PTR [rip+0x23cea2]        # 63f0e8 <srand@GLIBC_2.2.5>
  402246:	68 1a 00 00 00       	push   0x1a
  40224b:	e9 40 fe ff ff       	jmp    402090 <.plt>

0000000000402250 <__snprintf_chk@plt>:
  402250:	ff 25 9a ce 23 00    	jmp    QWORD PTR [rip+0x23ce9a]        # 63f0f0 <__snprintf_chk@GLIBC_2.3.4>
  402256:	68 1b 00 00 00       	push   0x1b
  40225b:	e9 30 fe ff ff       	jmp    402090 <.plt>

Disassembly of section .text:

0000000000402280 <_GLOBAL__sub_I_fast_mem_ops.c>:
  402280:	f3 0f 1e fa          	repz nop edx
  402284:	55                   	push   rbp
  402285:	48 89 e5             	mov    rbp,rsp
  402288:	41 56                	push   r14
  40228a:	53                   	push   rbx
  40228b:	48 83 ec 20          	sub    rsp,0x20
  40228f:	83 3d e6 df 24 00 00 	cmp    DWORD PTR [rip+0x24dfe6],0x0        # 65027c <_ZL18__libirc_cache_tbl+0xc>
  402296:	74 47                	je     4022df <_GLOBAL__sub_I_fast_mem_ops.c+0x5f>
  402298:	83 3d d1 df 24 00 00 	cmp    DWORD PTR [rip+0x24dfd1],0x0        # 650270 <_ZL18__libirc_cache_tbl>
  40229f:	74 4c                	je     4022ed <_GLOBAL__sub_I_fast_mem_ops.c+0x6d>
  4022a1:	83 3d cc df 24 00 00 	cmp    DWORD PTR [rip+0x24dfcc],0x0        # 650274 <_ZL18__libirc_cache_tbl+0x4>
  4022a8:	0f 84 66 01 00 00    	je     402414 <_GLOBAL__sub_I_fast_mem_ops.c+0x194>
  4022ae:	53                   	push   rbx
  4022af:	b8 01 00 00 00       	mov    eax,0x1
  4022b4:	0f a2                	cpuid  
  4022b6:	89 5d d0             	mov    DWORD PTR [rbp-0x30],ebx
  4022b9:	89 55 e0             	mov    DWORD PTR [rbp-0x20],edx
  4022bc:	89 45 ec             	mov    DWORD PTR [rbp-0x14],eax
  4022bf:	5b                   	pop    rbx
  4022c0:	8b 45 e0             	mov    eax,DWORD PTR [rbp-0x20]
  4022c3:	89 c1                	mov    ecx,eax
  4022c5:	c1 e9 17             	shr    ecx,0x17
  4022c8:	83 e1 01             	and    ecx,0x1
  4022cb:	a9 00 00 00 04       	test   eax,0x4000000
  4022d0:	41 be 02 00 00 00    	mov    r14d,0x2
  4022d6:	44 0f 44 f1          	cmove  r14d,ecx
  4022da:	e9 38 01 00 00       	jmp    402417 <_GLOBAL__sub_I_fast_mem_ops.c+0x197>
  4022df:	e8 5c 40 01 00       	call   416340 <_ZL23__libirc_init_cache_tblv>
  4022e4:	83 3d 85 df 24 00 00 	cmp    DWORD PTR [rip+0x24df85],0x0        # 650270 <_ZL18__libirc_cache_tbl>
  4022eb:	75 b4                	jne    4022a1 <_GLOBAL__sub_I_fast_mem_ops.c+0x21>
  4022ed:	c7 45 ec 00 00 00 00 	mov    DWORD PTR [rbp-0x14],0x0
  4022f4:	48 8d 75 d0          	lea    rsi,[rbp-0x30]
  4022f8:	48 89 75 e0          	mov    QWORD PTR [rbp-0x20],rsi
  4022fc:	50                   	push   rax
  4022fd:	53                   	push   rbx
  4022fe:	51                   	push   rcx
  4022ff:	52                   	push   rdx
  402300:	4c 8b 45 e0          	mov    r8,QWORD PTR [rbp-0x20]
  402304:	8b 45 ec             	mov    eax,DWORD PTR [rbp-0x14]
  402307:	0f a2                	cpuid  
  402309:	41 89 00             	mov    DWORD PTR [r8],eax
  40230c:	41 89 58 04          	mov    DWORD PTR [r8+0x4],ebx
  402310:	41 89 48 08          	mov    DWORD PTR [r8+0x8],ecx
  402314:	41 89 50 0c          	mov    DWORD PTR [r8+0xc],edx
  402318:	5a                   	pop    rdx
  402319:	59                   	pop    rcx
  40231a:	5b                   	pop    rbx
  40231b:	58                   	pop    rax
  40231c:	45 31 f6             	xor    r14d,r14d
  40231f:	81 7d d4 41 75 74 68 	cmp    DWORD PTR [rbp-0x2c],0x68747541
  402326:	0f 85 bd 01 00 00    	jne    4024e9 <_GLOBAL__sub_I_fast_mem_ops.c+0x269>
  40232c:	81 7d dc 65 6e 74 69 	cmp    DWORD PTR [rbp-0x24],0x69746e65
  402333:	0f 85 b0 01 00 00    	jne    4024e9 <_GLOBAL__sub_I_fast_mem_ops.c+0x269>
  402339:	81 7d d8 63 41 4d 44 	cmp    DWORD PTR [rbp-0x28],0x444d4163
  402340:	0f 85 a3 01 00 00    	jne    4024e9 <_GLOBAL__sub_I_fast_mem_ops.c+0x269>
  402346:	c7 45 ec 01 00 00 00 	mov    DWORD PTR [rbp-0x14],0x1
  40234d:	48 89 75 e0          	mov    QWORD PTR [rbp-0x20],rsi
  402351:	50                   	push   rax
  402352:	53                   	push   rbx
  402353:	51                   	push   rcx
  402354:	52                   	push   rdx
  402355:	4c 8b 45 e0          	mov    r8,QWORD PTR [rbp-0x20]
  402359:	8b 45 ec             	mov    eax,DWORD PTR [rbp-0x14]
  40235c:	0f a2                	cpuid  
  40235e:	41 89 00             	mov    DWORD PTR [r8],eax
  402361:	41 89 58 04          	mov    DWORD PTR [r8+0x4],ebx
  402365:	41 89 48 08          	mov    DWORD PTR [r8+0x8],ecx
  402369:	41 89 50 0c          	mov    DWORD PTR [r8+0xc],edx
  40236d:	5a                   	pop    rdx
  40236e:	59                   	pop    rcx
  40236f:	5b                   	pop    rbx
  402370:	58                   	pop    rax
  402371:	44 8b 75 dc          	mov    r14d,DWORD PTR [rbp-0x24]
  402375:	41 c1 ee 17          	shr    r14d,0x17
  402379:	41 83 e6 01          	and    r14d,0x1
  40237d:	c7 45 ec 00 00 00 80 	mov    DWORD PTR [rbp-0x14],0x80000000
  402384:	48 89 75 e0          	mov    QWORD PTR [rbp-0x20],rsi
  402388:	50                   	push   rax
  402389:	53                   	push   rbx
  40238a:	51                   	push   rcx
  40238b:	52                   	push   rdx
  40238c:	4c 8b 45 e0          	mov    r8,QWORD PTR [rbp-0x20]
  402390:	8b 45 ec             	mov    eax,DWORD PTR [rbp-0x14]
  402393:	0f a2                	cpuid  
  402395:	41 89 00             	mov    DWORD PTR [r8],eax
  402398:	41 89 58 04          	mov    DWORD PTR [r8+0x4],ebx
  40239c:	41 89 48 08          	mov    DWORD PTR [r8+0x8],ecx
  4023a0:	41 89 50 0c          	mov    DWORD PTR [r8+0xc],edx
  4023a4:	5a                   	pop    rdx
  4023a5:	59                   	pop    rcx
  4023a6:	5b                   	pop    rbx
  4023a7:	58                   	pop    rax
  4023a8:	81 7d d0 06 00 00 80 	cmp    DWORD PTR [rbp-0x30],0x80000006
  4023af:	0f 82 34 01 00 00    	jb     4024e9 <_GLOBAL__sub_I_fast_mem_ops.c+0x269>
  4023b5:	c7 45 ec 06 00 00 80 	mov    DWORD PTR [rbp-0x14],0x80000006
  4023bc:	48 89 75 e0          	mov    QWORD PTR [rbp-0x20],rsi
  4023c0:	50                   	push   rax
  4023c1:	53                   	push   rbx
  4023c2:	51                   	push   rcx
  4023c3:	52                   	push   rdx
  4023c4:	4c 8b 45 e0          	mov    r8,QWORD PTR [rbp-0x20]
  4023c8:	8b 45 ec             	mov    eax,DWORD PTR [rbp-0x14]
  4023cb:	0f a2                	cpuid  
  4023cd:	41 89 00             	mov    DWORD PTR [r8],eax
  4023d0:	41 89 58 04          	mov    DWORD PTR [r8+0x4],ebx
  4023d4:	41 89 48 08          	mov    DWORD PTR [r8+0x8],ecx
  4023d8:	41 89 50 0c          	mov    DWORD PTR [r8+0xc],edx
  4023dc:	5a                   	pop    rdx
  4023dd:	59                   	pop    rcx
  4023de:	5b                   	pop    rbx
  4023df:	58                   	pop    rax
  4023e0:	8b 45 d8             	mov    eax,DWORD PTR [rbp-0x28]
  4023e3:	48 c1 e8 06          	shr    rax,0x6
  4023e7:	25 00 fc ff 03       	and    eax,0x3fffc00
  4023ec:	48 89 05 ad d6 24 00 	mov    QWORD PTR [rip+0x24d6ad],rax        # 64faa0 <__libirc_largest_cache_size>
  4023f3:	48 d1 e8             	shr    rax,1
  4023f6:	48 89 05 ab d6 24 00 	mov    QWORD PTR [rip+0x24d6ab],rax        # 64faa8 <__libirc_largest_cache_size_half>
  4023fd:	48 8b 05 ac d6 24 00 	mov    rax,QWORD PTR [rip+0x24d6ac]        # 64fab0 <__libirc_data_cache_size>
  402404:	48 c1 e8 02          	shr    rax,0x2
  402408:	48 89 05 b1 d6 24 00 	mov    QWORD PTR [rip+0x24d6b1],rax        # 64fac0 <__libirc_largest_cache_size_quoter>
  40240f:	e9 d5 00 00 00       	jmp    4024e9 <_GLOBAL__sub_I_fast_mem_ops.c+0x269>
  402414:	45 31 f6             	xor    r14d,r14d
  402417:	8b 05 63 de 24 00    	mov    eax,DWORD PTR [rip+0x24de63]        # 650280 <_ZL18__libirc_cache_tbl+0x10>
  40241d:	85 c0                	test   eax,eax
  40241f:	0f 84 ae 00 00 00    	je     4024d3 <_GLOBAL__sub_I_fast_mem_ops.c+0x253>
  402425:	8b 0d 6d de 24 00    	mov    ecx,DWORD PTR [rip+0x24de6d]        # 650298 <_ZL18__libirc_cache_tbl+0x28>
  40242b:	0f af 0d 62 de 24 00 	imul   ecx,DWORD PTR [rip+0x24de62]        # 650294 <_ZL18__libirc_cache_tbl+0x24>
  402432:	8b 15 58 de 24 00    	mov    edx,DWORD PTR [rip+0x24de58]        # 650290 <_ZL18__libirc_cache_tbl+0x20>
  402438:	8b 35 4a de 24 00    	mov    esi,DWORD PTR [rip+0x24de4a]        # 650288 <_ZL18__libirc_cache_tbl+0x18>
  40243e:	0f af 35 3f de 24 00 	imul   esi,DWORD PTR [rip+0x24de3f]        # 650284 <_ZL18__libirc_cache_tbl+0x14>
  402445:	39 d0                	cmp    eax,edx
  402447:	0f 47 d0             	cmova  edx,eax
  40244a:	0f 42 f1             	cmovb  esi,ecx
  40244d:	8b 0d 55 de 24 00    	mov    ecx,DWORD PTR [rip+0x24de55]        # 6502a8 <_ZL18__libirc_cache_tbl+0x38>
  402453:	0f af 0d 4a de 24 00 	imul   ecx,DWORD PTR [rip+0x24de4a]        # 6502a4 <_ZL18__libirc_cache_tbl+0x34>
  40245a:	8b 3d 40 de 24 00    	mov    edi,DWORD PTR [rip+0x24de40]        # 6502a0 <_ZL18__libirc_cache_tbl+0x30>
  402460:	39 fa                	cmp    edx,edi
  402462:	0f 43 ce             	cmovae ecx,esi
  402465:	0f 46 d7             	cmovbe edx,edi
  402468:	48 89 d6             	mov    rsi,rdx
  40246b:	48 c1 e6 0a          	shl    rsi,0xa
  40246f:	48 89 35 2a d6 24 00 	mov    QWORD PTR [rip+0x24d62a],rsi        # 64faa0 <__libirc_largest_cache_size>
  402476:	48 c1 e2 09          	shl    rdx,0x9
  40247a:	48 89 15 27 d6 24 00 	mov    QWORD PTR [rip+0x24d627],rdx        # 64faa8 <__libirc_largest_cache_size_half>
  402481:	c1 e0 0a             	shl    eax,0xa
  402484:	48 89 05 25 d6 24 00 	mov    QWORD PTR [rip+0x24d625],rax        # 64fab0 <__libirc_data_cache_size>
  40248b:	48 89 c2             	mov    rdx,rax
  40248e:	48 d1 ea             	shr    rdx,1
  402491:	48 89 15 20 d6 24 00 	mov    QWORD PTR [rip+0x24d620],rdx        # 64fab8 <__libirc_data_cache_size_half>
  402498:	48 89 c2             	mov    rdx,rax
  40249b:	48 c1 ea 02          	shr    rdx,0x2
  40249f:	48 89 15 1a d6 24 00 	mov    QWORD PTR [rip+0x24d61a],rdx        # 64fac0 <__libirc_largest_cache_size_quoter>
  4024a6:	48 89 0d 0b de 24 00 	mov    QWORD PTR [rip+0x24de0b],rcx        # 6502b8 <__libirc_largest_cachelinesize>
  4024ad:	48 c7 05 10 d6 24 00 	mov    QWORD PTR [rip+0x24d610],0x2000        # 64fac8 <__libirc_copy_loop_threshold>
  4024b4:	00 20 00 00 
  4024b8:	48 01 c0             	add    rax,rax
  4024bb:	48 8d 04 40          	lea    rax,[rax+rax*2]
  4024bf:	48 89 05 0a d6 24 00 	mov    QWORD PTR [rip+0x24d60a],rax        # 64fad0 <__libirc_rep_move_threshold>
  4024c6:	48 c7 05 07 d6 24 00 	mov    QWORD PTR [rip+0x24d607],0x800        # 64fad8 <__libirc_set_loop_threshold>
  4024cd:	00 08 00 00 
  4024d1:	eb 16                	jmp    4024e9 <_GLOBAL__sub_I_fast_mem_ops.c+0x269>
  4024d3:	48 8d 3d 56 87 03 00 	lea    rdi,[rip+0x38756]        # 43ac30 <_ZL16cpuid2_cache_tbl+0x800>
  4024da:	e8 d1 fc ff ff       	call   4021b0 <getenv@plt>
  4024df:	48 85 c0             	test   rax,rax
  4024e2:	74 05                	je     4024e9 <_GLOBAL__sub_I_fast_mem_ops.c+0x269>
  4024e4:	80 38 00             	cmp    BYTE PTR [rax],0x0
  4024e7:	75 17                	jne    402500 <_GLOBAL__sub_I_fast_mem_ops.c+0x280>
  4024e9:	44 89 35 c0 dd 24 00 	mov    DWORD PTR [rip+0x24ddc0],r14d        # 6502b0 <__libirc_mem_ops_method>
  4024f0:	44 89 35 c9 dd 24 00 	mov    DWORD PTR [rip+0x24ddc9],r14d        # 6502c0 <_ZL12__libirc_tmp>
  4024f7:	48 83 c4 20          	add    rsp,0x20
  4024fb:	5b                   	pop    rbx
  4024fc:	41 5e                	pop    r14
  4024fe:	5d                   	pop    rbp
  4024ff:	c3                   	ret    
  402500:	bf 01 00 00 00       	mov    edi,0x1
  402505:	31 f6                	xor    esi,esi
  402507:	31 d2                	xor    edx,edx
  402509:	31 c0                	xor    eax,eax
  40250b:	e8 a0 44 01 00       	call   4169b0 <__libirc_print>
  402510:	bf 01 00 00 00       	mov    edi,0x1
  402515:	be 3d 00 00 00       	mov    esi,0x3d
  40251a:	31 d2                	xor    edx,edx
  40251c:	31 c0                	xor    eax,eax
  40251e:	e8 8d 44 01 00       	call   4169b0 <__libirc_print>
  402523:	bf 01 00 00 00       	mov    edi,0x1
  402528:	31 f6                	xor    esi,esi
  40252a:	31 d2                	xor    edx,edx
  40252c:	31 c0                	xor    eax,eax
  40252e:	e8 7d 44 01 00       	call   4169b0 <__libirc_print>
  402533:	bf 01 00 00 00       	mov    edi,0x1
  402538:	e8 43 fc ff ff       	call   402180 <exit@plt>

000000000040253d <_start>:
  40253d:	31 ed                	xor    ebp,ebp
  40253f:	49 89 d1             	mov    r9,rdx
  402542:	5e                   	pop    rsi
  402543:	48 89 e2             	mov    rdx,rsp
  402546:	48 83 e4 f0          	and    rsp,0xfffffffffffffff0
  40254a:	50                   	push   rax
  40254b:	54                   	push   rsp
  40254c:	49 c7 c0 70 6b 41 00 	mov    r8,0x416b70
  402553:	48 c7 c1 00 6b 41 00 	mov    rcx,0x416b00
  40255a:	48 c7 c7 20 26 40 00 	mov    rdi,0x402620
  402561:	e8 8a fc ff ff       	call   4021f0 <__libc_start_main@plt>
  402566:	f4                   	hlt    
  402567:	66 0f 1f 84 00 00 00 	nop    WORD PTR [rax+rax*1+0x0]
  40256e:	00 00 

0000000000402570 <deregister_tm_clones>:
  402570:	b8 e0 fa 64 00       	mov    eax,0x64fae0
  402575:	48 3d e0 fa 64 00    	cmp    rax,0x64fae0
  40257b:	74 13                	je     402590 <deregister_tm_clones+0x20>
  40257d:	b8 00 00 00 00       	mov    eax,0x0
  402582:	48 85 c0             	test   rax,rax
  402585:	74 09                	je     402590 <deregister_tm_clones+0x20>
  402587:	bf e0 fa 64 00       	mov    edi,0x64fae0
  40258c:	ff e0                	jmp    rax
  40258e:	66 90                	xchg   ax,ax
  402590:	c3                   	ret    
  402591:	0f 1f 44 00 00       	nop    DWORD PTR [rax+rax*1+0x0]
  402596:	66 2e 0f 1f 84 00 00 	nop    WORD PTR cs:[rax+rax*1+0x0]
  40259d:	00 00 00 

00000000004025a0 <register_tm_clones>:
  4025a0:	be e0 fa 64 00       	mov    esi,0x64fae0
  4025a5:	48 81 ee e0 fa 64 00 	sub    rsi,0x64fae0
  4025ac:	48 89 f0             	mov    rax,rsi
  4025af:	48 c1 f8 03          	sar    rax,0x3
  4025b3:	48 c1 ee 3f          	shr    rsi,0x3f
  4025b7:	48 01 c6             	add    rsi,rax
  4025ba:	48 d1 fe             	sar    rsi,1
  4025bd:	74 11                	je     4025d0 <register_tm_clones+0x30>
  4025bf:	b8 00 00 00 00       	mov    eax,0x0
  4025c4:	48 85 c0             	test   rax,rax
  4025c7:	74 07                	je     4025d0 <register_tm_clones+0x30>
  4025c9:	bf e0 fa 64 00       	mov    edi,0x64fae0
  4025ce:	ff e0                	jmp    rax
  4025d0:	c3                   	ret    
  4025d1:	0f 1f 44 00 00       	nop    DWORD PTR [rax+rax*1+0x0]
  4025d6:	66 2e 0f 1f 84 00 00 	nop    WORD PTR cs:[rax+rax*1+0x0]
  4025dd:	00 00 00 

00000000004025e0 <__do_global_dtors_aux>:
  4025e0:	80 3d 19 d5 24 00 00 	cmp    BYTE PTR [rip+0x24d519],0x0        # 64fb00 <completed.0>
  4025e7:	75 17                	jne    402600 <__do_global_dtors_aux+0x20>
  4025e9:	55                   	push   rbp
  4025ea:	48 89 e5             	mov    rbp,rsp
  4025ed:	e8 7e ff ff ff       	call   402570 <deregister_tm_clones>
  4025f2:	c6 05 07 d5 24 00 01 	mov    BYTE PTR [rip+0x24d507],0x1        # 64fb00 <completed.0>
  4025f9:	5d                   	pop    rbp
  4025fa:	c3                   	ret    
  4025fb:	0f 1f 44 00 00       	nop    DWORD PTR [rax+rax*1+0x0]
  402600:	c3                   	ret    
  402601:	0f 1f 44 00 00       	nop    DWORD PTR [rax+rax*1+0x0]
  402606:	66 2e 0f 1f 84 00 00 	nop    WORD PTR cs:[rax+rax*1+0x0]
  40260d:	00 00 00 

0000000000402610 <frame_dummy>:
  402610:	eb 8e                	jmp    4025a0 <register_tm_clones>
  402612:	66 2e 0f 1f 84 00 00 	nop    WORD PTR cs:[rax+rax*1+0x0]
  402619:	00 00 00 
  40261c:	0f 1f 40 00          	nop    DWORD PTR [rax+0x0]

0000000000402620 <main>:
  402620:	55                   	push   rbp
  402621:	48 89 e5             	mov    rbp,rsp
  402624:	48 83 e4 80          	and    rsp,0xffffffffffffff80
  402628:	41 54                	push   r12
  40262a:	41 55                	push   r13
  40262c:	41 56                	push   r14
  40262e:	41 57                	push   r15
  402630:	53                   	push   rbx
  402631:	48 81 ec d8 02 00 00 	sub    rsp,0x2d8
  402638:	bf 03 00 00 00       	mov    edi,0x3
  40263d:	33 f6                	xor    esi,esi
  40263f:	e8 3c e8 00 00       	call   410e80 <__intel_new_feature_proc_init>
  402644:	0f ae 1c 24          	stmxcsr DWORD PTR [rsp]
  402648:	bf 84 6b 41 00       	mov    edi,0x416b84
  40264d:	33 c0                	xor    eax,eax
  40264f:	81 0c 24 40 80 00 00 	or     DWORD PTR [rsp],0x8040
  402656:	48 8b 35 b3 ca 23 00 	mov    rsi,QWORD PTR [rip+0x23cab3]        # 63f110 <sgemm_desc>
  40265d:	0f ae 14 24          	ldmxcsr DWORD PTR [rsp]
  402661:	e8 3a fa ff ff       	call   4020a0 <printf@plt>
  402666:	33 ff                	xor    edi,edi
  402668:	e8 33 fb ff ff       	call   4021a0 <time@plt>
  40266d:	89 c7                	mov    edi,eax
  40266f:	e8 cc fb ff ff       	call   402240 <srand@plt>
  402674:	e8 87 fb ff ff       	call   402200 <rand@plt>
  402679:	66 0f ef c0          	pxor   xmm0,xmm0
  40267d:	f2 0f 2a c0          	cvtsi2sd xmm0,eax
  402681:	f2 0f 5e 05 37 47 01 	divsd  xmm0,QWORD PTR [rip+0x14737]        # 416dc0 <test_sizes.659.0.0.7+0x1c0>
  402688:	00 
  402689:	f2 0f 59 05 27 47 01 	mulsd  xmm0,QWORD PTR [rip+0x14727]        # 416db8 <test_sizes.659.0.0.7+0x1b8>
  402690:	00 
  402691:	f2 0f 58 05 17 47 01 	addsd  xmm0,QWORD PTR [rip+0x14717]        # 416db0 <test_sizes.659.0.0.7+0x1b0>
  402698:	00 
  402699:	e8 72 2d 00 00       	call   405410 <floor>
  40269e:	f2 0f 2c c0          	cvttsd2si eax,xmm0
  4026a2:	66 0f ef c9          	pxor   xmm1,xmm1
  4026a6:	f3 0f 2a c8          	cvtsi2ss xmm1,eax
  4026aa:	f3 0f 11 8c 24 f8 01 	movss  DWORD PTR [rsp+0x1f8],xmm1
  4026b1:	00 00 
  4026b3:	b8 80 01 00 00       	mov    eax,0x180
  4026b8:	0f 10 80 f0 6b 41 00 	movups xmm0,XMMWORD PTR [rax+0x416bf0]
  4026bf:	0f 10 88 e0 6b 41 00 	movups xmm1,XMMWORD PTR [rax+0x416be0]
  4026c6:	0f 10 90 d0 6b 41 00 	movups xmm2,XMMWORD PTR [rax+0x416bd0]
  4026cd:	0f 10 98 c0 6b 41 00 	movups xmm3,XMMWORD PTR [rax+0x416bc0]
  4026d4:	0f 11 44 04 f0       	movups XMMWORD PTR [rsp+rax*1-0x10],xmm0
  4026d9:	0f 11 4c 04 e0       	movups XMMWORD PTR [rsp+rax*1-0x20],xmm1
  4026de:	0f 11 54 04 d0       	movups XMMWORD PTR [rsp+rax*1-0x30],xmm2
  4026e3:	0f 11 5c 04 c0       	movups XMMWORD PTR [rsp+rax*1-0x40],xmm3
  4026e8:	48 83 e8 40          	sub    rax,0x40
  4026ec:	75 ca                	jne    4026b8 <main+0x98>
  4026ee:	48 63 9c 24 7c 01 00 	movsxd rbx,DWORD PTR [rsp+0x17c]
  4026f5:	00 
  4026f6:	41 89 dd             	mov    r13d,ebx
  4026f9:	43 8d 7c 6d 00       	lea    edi,[r13+r13*2+0x0]
  4026fe:	41 0f af fd          	imul   edi,r13d
  402702:	48 63 ff             	movsxd rdi,edi
  402705:	48 c1 e7 02          	shl    rdi,0x2
  402709:	e8 d2 fa ff ff       	call   4021e0 <malloc@plt>
  40270e:	49 89 c6             	mov    r14,rax
  402711:	4d 85 f6             	test   r14,r14
  402714:	75 14                	jne    40272a <main+0x10a>
  402716:	bf 98 6b 41 00       	mov    edi,0x416b98
  40271b:	e8 d0 f9 ff ff       	call   4020f0 <perror@plt>
  402720:	bf 01 00 00 00       	mov    edi,0x1
  402725:	e8 56 fa ff ff       	call   402180 <exit@plt>
  40272a:	45 0f af ed          	imul   r13d,r13d
  40272e:	4c 8d 24 dd 00 00 00 	lea    r12,[rbx*8+0x0]
  402735:	00 
  402736:	f3 0f 10 8c 24 f8 01 	movss  xmm1,DWORD PTR [rsp+0x1f8]
  40273d:	00 00 
  40273f:	0f c6 c9 00          	shufps xmm1,xmm1,0x0
  402743:	f2 0f 10 2d 7d 46 01 	movsd  xmm5,QWORD PTR [rip+0x1467d]        # 416dc8 <test_sizes.659.0.0.7+0x1c8>
  40274a:	00 
  40274b:	f2 0f 10 25 7d 46 01 	movsd  xmm4,QWORD PTR [rip+0x1467d]        # 416dd0 <test_sizes.659.0.0.7+0x1d0>
  402752:	00 
  402753:	4c 0f af e3          	imul   r12,rbx
  402757:	4d 03 e6             	add    r12,r14
  40275a:	48 8d 04 9d 00 00 00 	lea    rax,[rbx*4+0x0]
  402761:	00 
  402762:	48 0f af d8          	imul   rbx,rax
  402766:	49 03 de             	add    rbx,r14
  402769:	4c 89 f1             	mov    rcx,r14
  40276c:	4d 89 e3             	mov    r11,r12
  40276f:	48 89 da             	mov    rdx,rbx
  402772:	48 83 e1 0f          	and    rcx,0xf
  402776:	49 83 e3 0f          	and    r11,0xf
  40277a:	48 83 e2 0f          	and    rdx,0xf
  40277e:	89 cf                	mov    edi,ecx
  402780:	4d 63 ed             	movsxd r13,r13d
  402783:	45 89 d9             	mov    r9d,r11d
  402786:	41 89 d0             	mov    r8d,edx
  402789:	89 f9                	mov    ecx,edi
  40278b:	41 f7 d9             	neg    r9d
  40278e:	41 f7 d8             	neg    r8d
  402791:	f7 d9                	neg    ecx
  402793:	45 89 da             	mov    r10d,r11d
  402796:	41 83 c1 10          	add    r9d,0x10
  40279a:	89 d0                	mov    eax,edx
  40279c:	41 83 c0 10          	add    r8d,0x10
  4027a0:	89 fe                	mov    esi,edi
  4027a2:	83 c1 10             	add    ecx,0x10
  4027a5:	4f 8d 3c ae          	lea    r15,[r14+r13*4]
  4027a9:	41 c1 e9 02          	shr    r9d,0x2
  4027ad:	41 83 e2 03          	and    r10d,0x3
  4027b1:	41 c1 e8 02          	shr    r8d,0x2
  4027b5:	83 e0 03             	and    eax,0x3
  4027b8:	c1 e9 02             	shr    ecx,0x2
  4027bb:	83 e6 03             	and    esi,0x3
  4027be:	48 c7 84 24 08 02 00 	mov    QWORD PTR [rsp+0x208],0x0
  4027c5:	00 00 00 00 00 
  4027ca:	4f 8d 2c af          	lea    r13,[r15+r13*4]
  4027ce:	f3 0f 10 1d 16 46 01 	movss  xmm3,DWORD PTR [rip+0x14616]        # 416dec <test_sizes.659.0.0.7+0x1ec>
  4027d5:	00 
  4027d6:	f3 0f 10 15 06 46 01 	movss  xmm2,DWORD PTR [rip+0x14606]        # 416de4 <test_sizes.659.0.0.7+0x1e4>
  4027dd:	00 
  4027de:	0f 11 8c 24 a0 01 00 	movups XMMWORD PTR [rsp+0x1a0],xmm1
  4027e5:	00 
  4027e6:	89 8c 24 80 01 00 00 	mov    DWORD PTR [rsp+0x180],ecx
  4027ed:	89 b4 24 b0 01 00 00 	mov    DWORD PTR [rsp+0x1b0],esi
  4027f4:	89 bc 24 b8 01 00 00 	mov    DWORD PTR [rsp+0x1b8],edi
  4027fb:	44 89 84 24 88 01 00 	mov    DWORD PTR [rsp+0x188],r8d
  402802:	00 
  402803:	89 84 24 c0 01 00 00 	mov    DWORD PTR [rsp+0x1c0],eax
  40280a:	89 94 24 c8 01 00 00 	mov    DWORD PTR [rsp+0x1c8],edx
  402811:	48 89 9c 24 d0 01 00 	mov    QWORD PTR [rsp+0x1d0],rbx
  402818:	00 
  402819:	44 89 8c 24 90 01 00 	mov    DWORD PTR [rsp+0x190],r9d
  402820:	00 
  402821:	44 89 94 24 d8 01 00 	mov    DWORD PTR [rsp+0x1d8],r10d
  402828:	00 
  402829:	44 89 9c 24 e0 01 00 	mov    DWORD PTR [rsp+0x1e0],r11d
  402830:	00 
  402831:	4c 89 a4 24 e8 01 00 	mov    QWORD PTR [rsp+0x1e8],r12
  402838:	00 
  402839:	4c 89 bc 24 00 02 00 	mov    QWORD PTR [rsp+0x200],r15
  402840:	00 
  402841:	48 8b 84 24 08 02 00 	mov    rax,QWORD PTR [rsp+0x208]
  402848:	00 
  402849:	45 33 ff             	xor    r15d,r15d
  40284c:	44 8b 24 84          	mov    r12d,DWORD PTR [rsp+rax*4]
  402850:	49 63 dc             	movsxd rbx,r12d
  402853:	48 89 d8             	mov    rax,rbx
  402856:	48 0f af c3          	imul   rax,rbx
  40285a:	48 85 c0             	test   rax,rax
  40285d:	0f 8e 0f 01 00 00    	jle    402972 <main+0x352>
  402863:	4c 89 ac 24 98 01 00 	mov    QWORD PTR [rsp+0x198],r13
  40286a:	00 
  40286b:	45 89 e5             	mov    r13d,r12d
  40286e:	4d 89 f4             	mov    r12,r14
  402871:	49 89 c6             	mov    r14,rax
  402874:	e8 87 f9 ff ff       	call   402200 <rand@plt>
  402879:	66 0f ef c0          	pxor   xmm0,xmm0
  40287d:	f3 0f 2a c0          	cvtsi2ss xmm0,eax
  402881:	f3 0f 59 05 5f 45 01 	mulss  xmm0,DWORD PTR [rip+0x1455f]        # 416de8 <test_sizes.659.0.0.7+0x1e8>
  402888:	00 
  402889:	0f 28 c8             	movaps xmm1,xmm0
  40288c:	f3 0f 5c 0d 58 45 01 	subss  xmm1,DWORD PTR [rip+0x14558]        # 416dec <test_sizes.659.0.0.7+0x1ec>
  402893:	00 
  402894:	f3 0f 58 c8          	addss  xmm1,xmm0
  402898:	f3 43 0f 11 0c bc    	movss  DWORD PTR [r12+r15*4],xmm1
  40289e:	49 ff c7             	inc    r15
  4028a1:	4d 3b fe             	cmp    r15,r14
  4028a4:	7c ce                	jl     402874 <main+0x254>
  4028a6:	4c 89 f0             	mov    rax,r14
  4028a9:	4d 89 e6             	mov    r14,r12
  4028ac:	45 89 ec             	mov    r12d,r13d
  4028af:	45 33 ff             	xor    r15d,r15d
  4028b2:	4c 8b ac 24 98 01 00 	mov    r13,QWORD PTR [rsp+0x198]
  4028b9:	00 
  4028ba:	48 85 c0             	test   rax,rax
  4028bd:	0f 8e af 00 00 00    	jle    402972 <main+0x352>
  4028c3:	4c 89 ac 24 98 01 00 	mov    QWORD PTR [rsp+0x198],r13
  4028ca:	00 
  4028cb:	4c 89 b4 24 f0 01 00 	mov    QWORD PTR [rsp+0x1f0],r14
  4028d2:	00 
  4028d3:	49 89 c6             	mov    r14,rax
  4028d6:	4c 8b ac 24 00 02 00 	mov    r13,QWORD PTR [rsp+0x200]
  4028dd:	00 
  4028de:	e8 1d f9 ff ff       	call   402200 <rand@plt>
  4028e3:	66 0f ef c0          	pxor   xmm0,xmm0
  4028e7:	f3 0f 2a c0          	cvtsi2ss xmm0,eax
  4028eb:	f3 0f 59 05 f5 44 01 	mulss  xmm0,DWORD PTR [rip+0x144f5]        # 416de8 <test_sizes.659.0.0.7+0x1e8>
  4028f2:	00 
  4028f3:	0f 28 c8             	movaps xmm1,xmm0
  4028f6:	f3 0f 5c 0d ee 44 01 	subss  xmm1,DWORD PTR [rip+0x144ee]        # 416dec <test_sizes.659.0.0.7+0x1ec>
  4028fd:	00 
  4028fe:	f3 0f 58 c8          	addss  xmm1,xmm0
  402902:	f3 43 0f 11 4c bd 00 	movss  DWORD PTR [r13+r15*4+0x0],xmm1
  402909:	49 ff c7             	inc    r15
  40290c:	4d 3b fe             	cmp    r15,r14
  40290f:	7c cd                	jl     4028de <main+0x2be>
  402911:	4c 89 f0             	mov    rax,r14
  402914:	45 33 ff             	xor    r15d,r15d
  402917:	4c 8b ac 24 98 01 00 	mov    r13,QWORD PTR [rsp+0x198]
  40291e:	00 
  40291f:	4c 8b b4 24 f0 01 00 	mov    r14,QWORD PTR [rsp+0x1f0]
  402926:	00 
  402927:	48 85 c0             	test   rax,rax
  40292a:	7e 46                	jle    402972 <main+0x352>
  40292c:	4c 89 b4 24 f0 01 00 	mov    QWORD PTR [rsp+0x1f0],r14
  402933:	00 
  402934:	49 89 c6             	mov    r14,rax
  402937:	e8 c4 f8 ff ff       	call   402200 <rand@plt>
  40293c:	66 0f ef c0          	pxor   xmm0,xmm0
  402940:	f3 0f 2a c0          	cvtsi2ss xmm0,eax
  402944:	f3 0f 59 05 9c 44 01 	mulss  xmm0,DWORD PTR [rip+0x1449c]        # 416de8 <test_sizes.659.0.0.7+0x1e8>
  40294b:	00 
  40294c:	0f 28 c8             	movaps xmm1,xmm0
  40294f:	f3 0f 5c 0d 95 44 01 	subss  xmm1,DWORD PTR [rip+0x14495]        # 416dec <test_sizes.659.0.0.7+0x1ec>
  402956:	00 
  402957:	f3 0f 58 c8          	addss  xmm1,xmm0
  40295b:	f3 43 0f 11 4c bd 00 	movss  DWORD PTR [r13+r15*4+0x0],xmm1
  402962:	49 ff c7             	inc    r15
  402965:	4d 3b fe             	cmp    r15,r14
  402968:	7c cd                	jl     402937 <main+0x317>
  40296a:	4c 8b b4 24 f0 01 00 	mov    r14,QWORD PTR [rsp+0x1f0]
  402971:	00 
  402972:	48 89 9c 24 10 02 00 	mov    QWORD PTR [rsp+0x210],rbx
  402979:	00 
  40297a:	41 bf 01 00 00 00    	mov    r15d,0x1
  402980:	48 8b 9c 24 00 02 00 	mov    rbx,QWORD PTR [rsp+0x200]
  402987:	00 
  402988:	44 89 e7             	mov    edi,r12d
  40298b:	4c 89 f6             	mov    rsi,r14
  40298e:	48 89 da             	mov    rdx,rbx
  402991:	4c 89 e9             	mov    rcx,r13
  402994:	45 03 ff             	add    r15d,r15d
  402997:	e8 94 09 00 00       	call   403330 <square_sgemm>
  40299c:	33 f6                	xor    esi,esi
  40299e:	48 8d bc 24 68 02 00 	lea    rdi,[rsp+0x268]
  4029a5:	00 
  4029a6:	e8 a5 f7 ff ff       	call   402150 <gettimeofday@plt>
  4029ab:	66 0f ef c0          	pxor   xmm0,xmm0
  4029af:	66 0f ef c9          	pxor   xmm1,xmm1
  4029b3:	f2 48 0f 2a 84 24 70 	cvtsi2sd xmm0,QWORD PTR [rsp+0x270]
  4029ba:	02 00 00 
  4029bd:	f2 48 0f 2a 8c 24 68 	cvtsi2sd xmm1,QWORD PTR [rsp+0x268]
  4029c4:	02 00 00 
  4029c7:	f2 0f 59 05 f9 43 01 	mulsd  xmm0,QWORD PTR [rip+0x143f9]        # 416dc8 <test_sizes.659.0.0.7+0x1c8>
  4029ce:	00 
  4029cf:	33 c0                	xor    eax,eax
  4029d1:	f2 0f 58 c8          	addsd  xmm1,xmm0
  4029d5:	0f 57 0d b4 43 01 00 	xorps  xmm1,XMMWORD PTR [rip+0x143b4]        # 416d90 <test_sizes.659.0.0.7+0x190>
  4029dc:	f2 0f 11 8c 24 88 02 	movsd  QWORD PTR [rsp+0x288],xmm1
  4029e3:	00 00 
  4029e5:	45 85 ff             	test   r15d,r15d
  4029e8:	7e 31                	jle    402a1b <main+0x3fb>
  4029ea:	44 89 bc 24 90 02 00 	mov    DWORD PTR [rsp+0x290],r15d
  4029f1:	00 
  4029f2:	41 89 c7             	mov    r15d,eax
  4029f5:	44 89 e7             	mov    edi,r12d
  4029f8:	4c 89 f6             	mov    rsi,r14
  4029fb:	48 89 da             	mov    rdx,rbx
  4029fe:	4c 89 e9             	mov    rcx,r13
  402a01:	e8 2a 09 00 00       	call   403330 <square_sgemm>
  402a06:	41 ff c7             	inc    r15d
  402a09:	44 3b bc 24 90 02 00 	cmp    r15d,DWORD PTR [rsp+0x290]
  402a10:	00 
  402a11:	7c e2                	jl     4029f5 <main+0x3d5>
  402a13:	44 8b bc 24 90 02 00 	mov    r15d,DWORD PTR [rsp+0x290]
  402a1a:	00 
  402a1b:	33 f6                	xor    esi,esi
  402a1d:	48 8d bc 24 78 02 00 	lea    rdi,[rsp+0x278]
  402a24:	00 
  402a25:	e8 26 f7 ff ff       	call   402150 <gettimeofday@plt>
  402a2a:	66 0f ef c0          	pxor   xmm0,xmm0
  402a2e:	66 0f ef c9          	pxor   xmm1,xmm1
  402a32:	f2 48 0f 2a 84 24 80 	cvtsi2sd xmm0,QWORD PTR [rsp+0x280]
  402a39:	02 00 00 
  402a3c:	f2 48 0f 2a 8c 24 78 	cvtsi2sd xmm1,QWORD PTR [rsp+0x278]
  402a43:	02 00 00 
  402a46:	f2 0f 59 05 7a 43 01 	mulsd  xmm0,QWORD PTR [rip+0x1437a]        # 416dc8 <test_sizes.659.0.0.7+0x1c8>
  402a4d:	00 
  402a4e:	f2 0f 10 15 7a 43 01 	movsd  xmm2,QWORD PTR [rip+0x1437a]        # 416dd0 <test_sizes.659.0.0.7+0x1d0>
  402a55:	00 
  402a56:	f2 0f 58 c8          	addsd  xmm1,xmm0
  402a5a:	f2 0f 58 8c 24 88 02 	addsd  xmm1,QWORD PTR [rsp+0x288]
  402a61:	00 00 
  402a63:	66 0f 2f d1          	comisd xmm2,xmm1
  402a67:	0f 87 1b ff ff ff    	ja     402988 <main+0x368>
  402a6d:	66 0f ef d2          	pxor   xmm2,xmm2
  402a71:	66 0f ef db          	pxor   xmm3,xmm3
  402a75:	f2 41 0f 2a d4       	cvtsi2sd xmm2,r12d
  402a7a:	f2 41 0f 2a df       	cvtsi2sd xmm3,r15d
  402a7f:	f2 0f 10 05 51 43 01 	movsd  xmm0,QWORD PTR [rip+0x14351]        # 416dd8 <test_sizes.659.0.0.7+0x1d8>
  402a86:	00 
  402a87:	bf c0 6b 41 00       	mov    edi,0x416bc0
  402a8c:	f2 0f 59 c2          	mulsd  xmm0,xmm2
  402a90:	44 89 e6             	mov    esi,r12d
  402a93:	f2 0f 59 c2          	mulsd  xmm0,xmm2
  402a97:	44 89 fa             	mov    edx,r15d
  402a9a:	f2 0f 59 c2          	mulsd  xmm0,xmm2
  402a9e:	b8 02 00 00 00       	mov    eax,0x2
  402aa3:	f2 0f 59 c3          	mulsd  xmm0,xmm3
  402aa7:	f2 0f 5e c1          	divsd  xmm0,xmm1
  402aab:	48 8b 9c 24 10 02 00 	mov    rbx,QWORD PTR [rsp+0x210]
  402ab2:	00 
  402ab3:	e8 e8 f5 ff ff       	call   4020a0 <printf@plt>
  402ab8:	45 89 e7             	mov    r15d,r12d
  402abb:	4c 89 ef             	mov    rdi,r13
  402abe:	45 0f af fc          	imul   r15d,r12d
  402ac2:	33 f6                	xor    esi,esi
  402ac4:	49 63 d7             	movsxd rdx,r15d
  402ac7:	48 c1 e2 02          	shl    rdx,0x2
  402acb:	e8 60 df 00 00       	call   410a30 <_intel_fast_memset>
  402ad0:	45 85 ff             	test   r15d,r15d
  402ad3:	0f 8e c6 00 00 00    	jle    402b9f <main+0x57f>
  402ad9:	48 89 da             	mov    rdx,rbx
  402adc:	48 0f af d3          	imul   rdx,rbx
  402ae0:	48 83 fa 08          	cmp    rdx,0x8
  402ae4:	0f 8c ac 05 00 00    	jl     403096 <main+0xa76>
  402aea:	44 8b 94 24 e0 01 00 	mov    r10d,DWORD PTR [rsp+0x1e0]
  402af1:	00 
  402af2:	45 85 d2             	test   r10d,r10d
  402af5:	74 16                	je     402b0d <main+0x4ed>
  402af7:	83 bc 24 d8 01 00 00 	cmp    DWORD PTR [rsp+0x1d8],0x0
  402afe:	00 
  402aff:	0f 85 91 05 00 00    	jne    403096 <main+0xa76>
  402b05:	44 8b 94 24 90 01 00 	mov    r10d,DWORD PTR [rsp+0x190]
  402b0c:	00 
  402b0d:	44 89 d0             	mov    eax,r10d
  402b10:	4c 8d 40 08          	lea    r8,[rax+0x8]
  402b14:	49 3b d0             	cmp    rdx,r8
  402b17:	0f 8c 79 05 00 00    	jl     403096 <main+0xa76>
  402b1d:	41 89 d1             	mov    r9d,edx
  402b20:	45 89 c8             	mov    r8d,r9d
  402b23:	45 2b c2             	sub    r8d,r10d
  402b26:	41 83 e0 07          	and    r8d,0x7
  402b2a:	45 2b c8             	sub    r9d,r8d
  402b2d:	45 33 c0             	xor    r8d,r8d
  402b30:	4d 63 c9             	movsxd r9,r9d
  402b33:	45 85 d2             	test   r10d,r10d
  402b36:	76 1f                	jbe    402b57 <main+0x537>
  402b38:	f3 0f 10 84 24 f8 01 	movss  xmm0,DWORD PTR [rsp+0x1f8]
  402b3f:	00 00 
  402b41:	4c 8b 94 24 e8 01 00 	mov    r10,QWORD PTR [rsp+0x1e8]
  402b48:	00 
  402b49:	f3 43 0f 11 04 82    	movss  DWORD PTR [r10+r8*4],xmm0
  402b4f:	49 ff c0             	inc    r8
  402b52:	4c 3b c0             	cmp    r8,rax
  402b55:	72 f2                	jb     402b49 <main+0x529>
  402b57:	0f 10 84 24 a0 01 00 	movups xmm0,XMMWORD PTR [rsp+0x1a0]
  402b5e:	00 
  402b5f:	4c 8b 84 24 e8 01 00 	mov    r8,QWORD PTR [rsp+0x1e8]
  402b66:	00 
  402b67:	41 0f 11 04 80       	movups XMMWORD PTR [r8+rax*4],xmm0
  402b6c:	41 0f 11 44 80 10    	movups XMMWORD PTR [r8+rax*4+0x10],xmm0
  402b72:	48 83 c0 08          	add    rax,0x8
  402b76:	49 3b c1             	cmp    rax,r9
  402b79:	72 ec                	jb     402b67 <main+0x547>
  402b7b:	4c 3b ca             	cmp    r9,rdx
  402b7e:	73 1f                	jae    402b9f <main+0x57f>
  402b80:	f3 0f 10 84 24 f8 01 	movss  xmm0,DWORD PTR [rsp+0x1f8]
  402b87:	00 00 
  402b89:	48 8b 84 24 e8 01 00 	mov    rax,QWORD PTR [rsp+0x1e8]
  402b90:	00 
  402b91:	f3 42 0f 11 04 88    	movss  DWORD PTR [rax+r9*4],xmm0
  402b97:	49 ff c1             	inc    r9
  402b9a:	4c 3b ca             	cmp    r9,rdx
  402b9d:	72 f2                	jb     402b91 <main+0x571>
  402b9f:	44 89 e7             	mov    edi,r12d
  402ba2:	4c 89 f6             	mov    rsi,r14
  402ba5:	4c 89 e9             	mov    rcx,r13
  402ba8:	48 8b 94 24 00 02 00 	mov    rdx,QWORD PTR [rsp+0x200]
  402baf:	00 
  402bb0:	e8 7b 07 00 00       	call   403330 <square_sgemm>
  402bb5:	f3 0f 10 05 2f 42 01 	movss  xmm0,DWORD PTR [rip+0x1422f]        # 416dec <test_sizes.659.0.0.7+0x1ec>
  402bbc:	00 
  402bbd:	b0 4e                	mov    al,0x4e
  402bbf:	44 89 a4 24 48 02 00 	mov    DWORD PTR [rsp+0x248],r12d
  402bc6:	00 
  402bc7:	c7 84 24 50 02 00 00 	mov    DWORD PTR [rsp+0x250],0xbf800000
  402bce:	00 00 80 bf 
  402bd2:	88 84 24 4c 02 00 00 	mov    BYTE PTR [rsp+0x24c],al
  402bd9:	88 84 24 4d 02 00 00 	mov    BYTE PTR [rsp+0x24d],al
  402be0:	44 89 a4 24 18 02 00 	mov    DWORD PTR [rsp+0x218],r12d
  402be7:	00 
  402be8:	44 89 a4 24 1c 02 00 	mov    DWORD PTR [rsp+0x21c],r12d
  402bef:	00 
  402bf0:	f3 0f 11 84 24 20 02 	movss  DWORD PTR [rsp+0x220],xmm0
  402bf7:	00 00 
  402bf9:	44 89 a4 24 24 02 00 	mov    DWORD PTR [rsp+0x224],r12d
  402c00:	00 
  402c01:	44 89 a4 24 28 02 00 	mov    DWORD PTR [rsp+0x228],r12d
  402c08:	00 
  402c09:	44 89 a4 24 2c 02 00 	mov    DWORD PTR [rsp+0x22c],r12d
  402c10:	00 
  402c11:	48 83 c4 c0          	add    rsp,0xffffffffffffffc0
  402c15:	4c 8d 94 24 64 02 00 	lea    r10,[rsp+0x264]
  402c1c:	00 
  402c1d:	48 8d 84 24 68 02 00 	lea    rax,[rsp+0x268]
  402c24:	00 
  402c25:	48 8d 94 24 60 02 00 	lea    rdx,[rsp+0x260]
  402c2c:	00 
  402c2d:	4c 89 34 24          	mov    QWORD PTR [rsp],r14
  402c31:	4c 8d 84 24 6c 02 00 	lea    r8,[rsp+0x26c]
  402c38:	00 
  402c39:	4c 89 54 24 08       	mov    QWORD PTR [rsp+0x8],r10
  402c3e:	48 8d bc 24 8c 02 00 	lea    rdi,[rsp+0x28c]
  402c45:	00 
  402c46:	4c 8b 58 d8          	mov    r11,QWORD PTR [rax-0x28]
  402c4a:	48 8d b4 24 8d 02 00 	lea    rsi,[rsp+0x28d]
  402c51:	00 
  402c52:	4c 89 5c 24 10       	mov    QWORD PTR [rsp+0x10],r11
  402c57:	48 8d 8c 24 88 02 00 	lea    rcx,[rsp+0x288]
  402c5e:	00 
  402c5f:	48 89 44 24 18       	mov    QWORD PTR [rsp+0x18],rax
  402c64:	4c 8d 8c 24 90 02 00 	lea    r9,[rsp+0x290]
  402c6b:	00 
  402c6c:	48 89 54 24 20       	mov    QWORD PTR [rsp+0x20],rdx
  402c71:	48 8d 94 24 58 02 00 	lea    rdx,[rsp+0x258]
  402c78:	00 
  402c79:	4c 89 6c 24 28       	mov    QWORD PTR [rsp+0x28],r13
  402c7e:	4c 89 44 24 30       	mov    QWORD PTR [rsp+0x30],r8
  402c83:	4c 8d 84 24 5c 02 00 	lea    r8,[rsp+0x25c]
  402c8a:	00 
  402c8b:	e8 40 f5 ff ff       	call   4021d0 <sgemm_@plt>
  402c90:	48 83 c4 40          	add    rsp,0x40
  402c94:	45 85 ff             	test   r15d,r15d
  402c97:	0f 8e 81 02 00 00    	jle    402f1e <main+0x8fe>
  402c9d:	49 89 d9             	mov    r9,rbx
  402ca0:	4c 0f af cb          	imul   r9,rbx
  402ca4:	49 83 f9 08          	cmp    r9,0x8
  402ca8:	0f 8c e1 03 00 00    	jl     40308f <main+0xa6f>
  402cae:	44 8b 94 24 b8 01 00 	mov    r10d,DWORD PTR [rsp+0x1b8]
  402cb5:	00 
  402cb6:	45 85 d2             	test   r10d,r10d
  402cb9:	74 16                	je     402cd1 <main+0x6b1>
  402cbb:	83 bc 24 b0 01 00 00 	cmp    DWORD PTR [rsp+0x1b0],0x0
  402cc2:	00 
  402cc3:	0f 85 c6 03 00 00    	jne    40308f <main+0xa6f>
  402cc9:	44 8b 94 24 80 01 00 	mov    r10d,DWORD PTR [rsp+0x180]
  402cd0:	00 
  402cd1:	45 89 d0             	mov    r8d,r10d
  402cd4:	49 8d 40 08          	lea    rax,[r8+0x8]
  402cd8:	4c 3b c8             	cmp    r9,rax
  402cdb:	0f 8c ae 03 00 00    	jl     40308f <main+0xa6f>
  402ce1:	44 89 ca             	mov    edx,r9d
  402ce4:	89 d0                	mov    eax,edx
  402ce6:	41 2b c2             	sub    eax,r10d
  402ce9:	83 e0 07             	and    eax,0x7
  402cec:	2b d0                	sub    edx,eax
  402cee:	33 c0                	xor    eax,eax
  402cf0:	48 63 d2             	movsxd rdx,edx
  402cf3:	45 85 d2             	test   r10d,r10d
  402cf6:	76 1b                	jbe    402d13 <main+0x6f3>
  402cf8:	f3 41 0f 10 04 86    	movss  xmm0,DWORD PTR [r14+rax*4]
  402cfe:	0f 54 05 9b 40 01 00 	andps  xmm0,XMMWORD PTR [rip+0x1409b]        # 416da0 <test_sizes.659.0.0.7+0x1a0>
  402d05:	f3 41 0f 11 04 86    	movss  DWORD PTR [r14+rax*4],xmm0
  402d0b:	48 ff c0             	inc    rax
  402d0e:	49 3b c0             	cmp    rax,r8
  402d11:	72 e5                	jb     402cf8 <main+0x6d8>
  402d13:	43 0f 10 04 86       	movups xmm0,XMMWORD PTR [r14+r8*4]
  402d18:	43 0f 10 4c 86 10    	movups xmm1,XMMWORD PTR [r14+r8*4+0x10]
  402d1e:	0f 54 05 5b 40 01 00 	andps  xmm0,XMMWORD PTR [rip+0x1405b]        # 416d80 <test_sizes.659.0.0.7+0x180>
  402d25:	0f 54 0d 54 40 01 00 	andps  xmm1,XMMWORD PTR [rip+0x14054]        # 416d80 <test_sizes.659.0.0.7+0x180>
  402d2c:	43 0f 11 04 86       	movups XMMWORD PTR [r14+r8*4],xmm0
  402d31:	43 0f 11 4c 86 10    	movups XMMWORD PTR [r14+r8*4+0x10],xmm1
  402d37:	49 83 c0 08          	add    r8,0x8
  402d3b:	4c 3b c2             	cmp    r8,rdx
  402d3e:	72 d3                	jb     402d13 <main+0x6f3>
  402d40:	49 3b d1             	cmp    rdx,r9
  402d43:	73 1b                	jae    402d60 <main+0x740>
  402d45:	f3 41 0f 10 04 96    	movss  xmm0,DWORD PTR [r14+rdx*4]
  402d4b:	0f 54 05 4e 40 01 00 	andps  xmm0,XMMWORD PTR [rip+0x1404e]        # 416da0 <test_sizes.659.0.0.7+0x1a0>
  402d52:	f3 41 0f 11 04 96    	movss  DWORD PTR [r14+rdx*4],xmm0
  402d58:	48 ff c2             	inc    rdx
  402d5b:	49 3b d1             	cmp    rdx,r9
  402d5e:	72 e5                	jb     402d45 <main+0x725>
  402d60:	48 89 da             	mov    rdx,rbx
  402d63:	48 0f af d3          	imul   rdx,rbx
  402d67:	48 83 fa 08          	cmp    rdx,0x8
  402d6b:	0f 8c 16 03 00 00    	jl     403087 <main+0xa67>
  402d71:	44 8b 94 24 c8 01 00 	mov    r10d,DWORD PTR [rsp+0x1c8]
  402d78:	00 
  402d79:	45 85 d2             	test   r10d,r10d
  402d7c:	74 16                	je     402d94 <main+0x774>
  402d7e:	83 bc 24 c0 01 00 00 	cmp    DWORD PTR [rsp+0x1c0],0x0
  402d85:	00 
  402d86:	0f 85 fb 02 00 00    	jne    403087 <main+0xa67>
  402d8c:	44 8b 94 24 88 01 00 	mov    r10d,DWORD PTR [rsp+0x188]
  402d93:	00 
  402d94:	44 89 d0             	mov    eax,r10d
  402d97:	4c 8d 40 08          	lea    r8,[rax+0x8]
  402d9b:	49 3b d0             	cmp    rdx,r8
  402d9e:	0f 8c e3 02 00 00    	jl     403087 <main+0xa67>
  402da4:	41 89 d1             	mov    r9d,edx
  402da7:	45 89 c8             	mov    r8d,r9d
  402daa:	45 2b c2             	sub    r8d,r10d
  402dad:	41 83 e0 07          	and    r8d,0x7
  402db1:	45 2b c8             	sub    r9d,r8d
  402db4:	45 33 c0             	xor    r8d,r8d
  402db7:	4d 63 c9             	movsxd r9,r9d
  402dba:	45 85 d2             	test   r10d,r10d
  402dbd:	76 23                	jbe    402de2 <main+0x7c2>
  402dbf:	4c 8b 94 24 d0 01 00 	mov    r10,QWORD PTR [rsp+0x1d0]
  402dc6:	00 
  402dc7:	f3 43 0f 10 04 82    	movss  xmm0,DWORD PTR [r10+r8*4]
  402dcd:	0f 54 05 cc 3f 01 00 	andps  xmm0,XMMWORD PTR [rip+0x13fcc]        # 416da0 <test_sizes.659.0.0.7+0x1a0>
  402dd4:	f3 43 0f 11 04 82    	movss  DWORD PTR [r10+r8*4],xmm0
  402dda:	49 ff c0             	inc    r8
  402ddd:	4c 3b c0             	cmp    r8,rax
  402de0:	72 e5                	jb     402dc7 <main+0x7a7>
  402de2:	4c 8b 84 24 d0 01 00 	mov    r8,QWORD PTR [rsp+0x1d0]
  402de9:	00 
  402dea:	41 0f 10 04 80       	movups xmm0,XMMWORD PTR [r8+rax*4]
  402def:	41 0f 10 4c 80 10    	movups xmm1,XMMWORD PTR [r8+rax*4+0x10]
  402df5:	0f 54 05 84 3f 01 00 	andps  xmm0,XMMWORD PTR [rip+0x13f84]        # 416d80 <test_sizes.659.0.0.7+0x180>
  402dfc:	0f 54 0d 7d 3f 01 00 	andps  xmm1,XMMWORD PTR [rip+0x13f7d]        # 416d80 <test_sizes.659.0.0.7+0x180>
  402e03:	41 0f 11 04 80       	movups XMMWORD PTR [r8+rax*4],xmm0
  402e08:	41 0f 11 4c 80 10    	movups XMMWORD PTR [r8+rax*4+0x10],xmm1
  402e0e:	48 83 c0 08          	add    rax,0x8
  402e12:	49 3b c1             	cmp    rax,r9
  402e15:	72 d3                	jb     402dea <main+0x7ca>
  402e17:	4c 3b ca             	cmp    r9,rdx
  402e1a:	73 23                	jae    402e3f <main+0x81f>
  402e1c:	48 8b 84 24 d0 01 00 	mov    rax,QWORD PTR [rsp+0x1d0]
  402e23:	00 
  402e24:	f3 42 0f 10 04 88    	movss  xmm0,DWORD PTR [rax+r9*4]
  402e2a:	0f 54 05 6f 3f 01 00 	andps  xmm0,XMMWORD PTR [rip+0x13f6f]        # 416da0 <test_sizes.659.0.0.7+0x1a0>
  402e31:	f3 42 0f 11 04 88    	movss  DWORD PTR [rax+r9*4],xmm0
  402e37:	49 ff c1             	inc    r9
  402e3a:	4c 3b ca             	cmp    r9,rdx
  402e3d:	72 e5                	jb     402e24 <main+0x804>
  402e3f:	48 89 da             	mov    rdx,rbx
  402e42:	48 0f af d3          	imul   rdx,rbx
  402e46:	48 83 fa 08          	cmp    rdx,0x8
  402e4a:	0f 8c 2f 02 00 00    	jl     40307f <main+0xa5f>
  402e50:	44 8b 94 24 e0 01 00 	mov    r10d,DWORD PTR [rsp+0x1e0]
  402e57:	00 
  402e58:	45 85 d2             	test   r10d,r10d
  402e5b:	74 16                	je     402e73 <main+0x853>
  402e5d:	83 bc 24 d8 01 00 00 	cmp    DWORD PTR [rsp+0x1d8],0x0
  402e64:	00 
  402e65:	0f 85 14 02 00 00    	jne    40307f <main+0xa5f>
  402e6b:	44 8b 94 24 90 01 00 	mov    r10d,DWORD PTR [rsp+0x190]
  402e72:	00 
  402e73:	44 89 d0             	mov    eax,r10d
  402e76:	4c 8d 40 08          	lea    r8,[rax+0x8]
  402e7a:	49 3b d0             	cmp    rdx,r8
  402e7d:	0f 8c fc 01 00 00    	jl     40307f <main+0xa5f>
  402e83:	41 89 d1             	mov    r9d,edx
  402e86:	45 89 c8             	mov    r8d,r9d
  402e89:	45 2b c2             	sub    r8d,r10d
  402e8c:	41 83 e0 07          	and    r8d,0x7
  402e90:	45 2b c8             	sub    r9d,r8d
  402e93:	45 33 c0             	xor    r8d,r8d
  402e96:	4d 63 c9             	movsxd r9,r9d
  402e99:	45 85 d2             	test   r10d,r10d
  402e9c:	76 23                	jbe    402ec1 <main+0x8a1>
  402e9e:	4c 8b 94 24 e8 01 00 	mov    r10,QWORD PTR [rsp+0x1e8]
  402ea5:	00 
  402ea6:	f3 43 0f 10 04 82    	movss  xmm0,DWORD PTR [r10+r8*4]
  402eac:	0f 54 05 ed 3e 01 00 	andps  xmm0,XMMWORD PTR [rip+0x13eed]        # 416da0 <test_sizes.659.0.0.7+0x1a0>
  402eb3:	f3 43 0f 11 04 82    	movss  DWORD PTR [r10+r8*4],xmm0
  402eb9:	49 ff c0             	inc    r8
  402ebc:	4c 3b c0             	cmp    r8,rax
  402ebf:	72 e5                	jb     402ea6 <main+0x886>
  402ec1:	4c 8b 84 24 e8 01 00 	mov    r8,QWORD PTR [rsp+0x1e8]
  402ec8:	00 
  402ec9:	41 0f 10 04 80       	movups xmm0,XMMWORD PTR [r8+rax*4]
  402ece:	41 0f 10 4c 80 10    	movups xmm1,XMMWORD PTR [r8+rax*4+0x10]
  402ed4:	0f 54 05 a5 3e 01 00 	andps  xmm0,XMMWORD PTR [rip+0x13ea5]        # 416d80 <test_sizes.659.0.0.7+0x180>
  402edb:	0f 54 0d 9e 3e 01 00 	andps  xmm1,XMMWORD PTR [rip+0x13e9e]        # 416d80 <test_sizes.659.0.0.7+0x180>
  402ee2:	41 0f 11 04 80       	movups XMMWORD PTR [r8+rax*4],xmm0
  402ee7:	41 0f 11 4c 80 10    	movups XMMWORD PTR [r8+rax*4+0x10],xmm1
  402eed:	48 83 c0 08          	add    rax,0x8
  402ef1:	49 3b c1             	cmp    rax,r9
  402ef4:	72 d3                	jb     402ec9 <main+0x8a9>
  402ef6:	4c 3b ca             	cmp    r9,rdx
  402ef9:	73 23                	jae    402f1e <main+0x8fe>
  402efb:	48 8b 84 24 e8 01 00 	mov    rax,QWORD PTR [rsp+0x1e8]
  402f02:	00 
  402f03:	f3 42 0f 10 04 88    	movss  xmm0,DWORD PTR [rax+r9*4]
  402f09:	0f 54 05 90 3e 01 00 	andps  xmm0,XMMWORD PTR [rip+0x13e90]        # 416da0 <test_sizes.659.0.0.7+0x1a0>
  402f10:	f3 42 0f 11 04 88    	movss  DWORD PTR [rax+r9*4],xmm0
  402f16:	49 ff c1             	inc    r9
  402f19:	4c 3b ca             	cmp    r9,rdx
  402f1c:	72 e5                	jb     402f03 <main+0x8e3>
  402f1e:	66 0f ef c0          	pxor   xmm0,xmm0
  402f22:	b0 4e                	mov    al,0x4e
  402f24:	f3 41 0f 2a c4       	cvtsi2ss xmm0,r12d
  402f29:	f3 0f 59 05 b3 3e 01 	mulss  xmm0,DWORD PTR [rip+0x13eb3]        # 416de4 <test_sizes.659.0.0.7+0x1e4>
  402f30:	00 
  402f31:	f3 0f 10 0d b3 3e 01 	movss  xmm1,DWORD PTR [rip+0x13eb3]        # 416dec <test_sizes.659.0.0.7+0x1ec>
  402f38:	00 
  402f39:	44 89 a4 24 58 02 00 	mov    DWORD PTR [rsp+0x258],r12d
  402f40:	00 
  402f41:	f3 0f 11 84 24 60 02 	movss  DWORD PTR [rsp+0x260],xmm0
  402f48:	00 00 
  402f4a:	88 84 24 4e 02 00 00 	mov    BYTE PTR [rsp+0x24e],al
  402f51:	88 84 24 4f 02 00 00 	mov    BYTE PTR [rsp+0x24f],al
  402f58:	44 89 a4 24 30 02 00 	mov    DWORD PTR [rsp+0x230],r12d
  402f5f:	00 
  402f60:	44 89 a4 24 34 02 00 	mov    DWORD PTR [rsp+0x234],r12d
  402f67:	00 
  402f68:	f3 0f 11 8c 24 38 02 	movss  DWORD PTR [rsp+0x238],xmm1
  402f6f:	00 00 
  402f71:	44 89 a4 24 3c 02 00 	mov    DWORD PTR [rsp+0x23c],r12d
  402f78:	00 
  402f79:	44 89 a4 24 40 02 00 	mov    DWORD PTR [rsp+0x240],r12d
  402f80:	00 
  402f81:	44 89 a4 24 44 02 00 	mov    DWORD PTR [rsp+0x244],r12d
  402f88:	00 
  402f89:	48 83 c4 c0          	add    rsp,0xffffffffffffffc0
  402f8d:	4c 8d 94 24 7c 02 00 	lea    r10,[rsp+0x27c]
  402f94:	00 
  402f95:	48 8d bc 24 8e 02 00 	lea    rdi,[rsp+0x28e]
  402f9c:	00 
  402f9d:	48 8d b4 24 8f 02 00 	lea    rsi,[rsp+0x28f]
  402fa4:	00 
  402fa5:	4c 89 34 24          	mov    QWORD PTR [rsp],r14
  402fa9:	48 8d 94 24 70 02 00 	lea    rdx,[rsp+0x270]
  402fb0:	00 
  402fb1:	4c 89 54 24 08       	mov    QWORD PTR [rsp+0x8],r10
  402fb6:	48 8d 8c 24 98 02 00 	lea    rcx,[rsp+0x298]
  402fbd:	00 
  402fbe:	4c 8b 5a d0          	mov    r11,QWORD PTR [rdx-0x30]
  402fc2:	4c 8d 84 24 74 02 00 	lea    r8,[rsp+0x274]
  402fc9:	00 
  402fca:	4c 89 5c 24 10       	mov    QWORD PTR [rsp+0x10],r11
  402fcf:	4c 8d 8c 24 a0 02 00 	lea    r9,[rsp+0x2a0]
  402fd6:	00 
  402fd7:	48 8d 84 24 80 02 00 	lea    rax,[rsp+0x280]
  402fde:	00 
  402fdf:	48 89 44 24 18       	mov    QWORD PTR [rsp+0x18],rax
  402fe4:	48 8d 84 24 78 02 00 	lea    rax,[rsp+0x278]
  402feb:	00 
  402fec:	48 89 44 24 20       	mov    QWORD PTR [rsp+0x20],rax
  402ff1:	4c 89 6c 24 28       	mov    QWORD PTR [rsp+0x28],r13
  402ff6:	48 8d 84 24 84 02 00 	lea    rax,[rsp+0x284]
  402ffd:	00 
  402ffe:	48 89 44 24 30       	mov    QWORD PTR [rsp+0x30],rax
  403003:	e8 c8 f1 ff ff       	call   4021d0 <sgemm_@plt>
  403008:	48 83 c4 40          	add    rsp,0x40
  40300c:	33 c0                	xor    eax,eax
  40300e:	45 85 ff             	test   r15d,r15d
  403011:	7e 21                	jle    403034 <main+0xa14>
  403013:	48 0f af db          	imul   rbx,rbx
  403017:	f3 0f 10 8c 24 f8 01 	movss  xmm1,DWORD PTR [rsp+0x1f8]
  40301e:	00 00 
  403020:	f3 41 0f 10 44 85 00 	movss  xmm0,DWORD PTR [r13+rax*4+0x0]
  403027:	0f 2f c1             	comiss xmm0,xmm1
  40302a:	77 44                	ja     403070 <main+0xa50>
  40302c:	48 ff c0             	inc    rax
  40302f:	48 3b c3             	cmp    rax,rbx
  403032:	7c ec                	jl     403020 <main+0xa00>
  403034:	48 8b 84 24 08 02 00 	mov    rax,QWORD PTR [rsp+0x208]
  40303b:	00 
  40303c:	48 ff c0             	inc    rax
  40303f:	48 89 84 24 08 02 00 	mov    QWORD PTR [rsp+0x208],rax
  403046:	00 
  403047:	48 83 f8 60          	cmp    rax,0x60
  40304b:	0f 82 f0 f7 ff ff    	jb     402841 <main+0x221>
  403051:	4c 89 f7             	mov    rdi,r14
  403054:	e8 57 f0 ff ff       	call   4020b0 <free@plt>
  403059:	33 c0                	xor    eax,eax
  40305b:	48 81 c4 d8 02 00 00 	add    rsp,0x2d8
  403062:	5b                   	pop    rbx
  403063:	41 5f                	pop    r15
  403065:	41 5e                	pop    r14
  403067:	41 5d                	pop    r13
  403069:	41 5c                	pop    r12
  40306b:	48 89 ec             	mov    rsp,rbp
  40306e:	5d                   	pop    rbp
  40306f:	c3                   	ret    
  403070:	bf 00 6e 41 00       	mov    edi,0x416e00
  403075:	e8 76 f0 ff ff       	call   4020f0 <perror@plt>
  40307a:	e9 a1 f6 ff ff       	jmp    402720 <main+0x100>
  40307f:	45 33 c9             	xor    r9d,r9d
  403082:	e9 6f fe ff ff       	jmp    402ef6 <main+0x8d6>
  403087:	45 33 c9             	xor    r9d,r9d
  40308a:	e9 88 fd ff ff       	jmp    402e17 <main+0x7f7>
  40308f:	33 d2                	xor    edx,edx
  403091:	e9 aa fc ff ff       	jmp    402d40 <main+0x720>
  403096:	45 33 c9             	xor    r9d,r9d
  403099:	e9 dd fa ff ff       	jmp    402b7b <main+0x55b>
  40309e:	66 90                	xchg   ax,ax

00000000004030a0 <reference_sgemm>:
  4030a0:	48 83 ec 28          	sub    rsp,0x28
  4030a4:	b0 4e                	mov    al,0x4e
  4030a6:	89 7c 24 18          	mov    DWORD PTR [rsp+0x18],edi
  4030aa:	f3 0f 11 44 24 20    	movss  DWORD PTR [rsp+0x20],xmm0
  4030b0:	88 44 24 1c          	mov    BYTE PTR [rsp+0x1c],al
  4030b4:	88 44 24 1d          	mov    BYTE PTR [rsp+0x1d],al
  4030b8:	89 3c 24             	mov    DWORD PTR [rsp],edi
  4030bb:	89 7c 24 04          	mov    DWORD PTR [rsp+0x4],edi
  4030bf:	c7 44 24 08 00 00 80 	mov    DWORD PTR [rsp+0x8],0x3f800000
  4030c6:	3f 
  4030c7:	89 7c 24 0c          	mov    DWORD PTR [rsp+0xc],edi
  4030cb:	89 7c 24 10          	mov    DWORD PTR [rsp+0x10],edi
  4030cf:	89 7c 24 14          	mov    DWORD PTR [rsp+0x14],edi
  4030d3:	48 83 c4 c0          	add    rsp,0xffffffffffffffc0
  4030d7:	4c 8d 44 24 4c       	lea    r8,[rsp+0x4c]
  4030dc:	4c 8d 4c 24 50       	lea    r9,[rsp+0x50]
  4030e1:	4c 8d 54 24 48       	lea    r10,[rsp+0x48]
  4030e6:	48 89 34 24          	mov    QWORD PTR [rsp],rsi
  4030ea:	48 8d 7c 24 5c       	lea    rdi,[rsp+0x5c]
  4030ef:	4c 89 44 24 08       	mov    QWORD PTR [rsp+0x8],r8
  4030f4:	48 8d 74 24 5d       	lea    rsi,[rsp+0x5d]
  4030f9:	48 89 54 24 10       	mov    QWORD PTR [rsp+0x10],rdx
  4030fe:	48 8d 54 24 40       	lea    rdx,[rsp+0x40]
  403103:	4c 89 4c 24 18       	mov    QWORD PTR [rsp+0x18],r9
  403108:	4c 8d 44 24 44       	lea    r8,[rsp+0x44]
  40310d:	4c 89 54 24 20       	mov    QWORD PTR [rsp+0x20],r10
  403112:	4c 8d 4c 24 60       	lea    r9,[rsp+0x60]
  403117:	48 89 4c 24 28       	mov    QWORD PTR [rsp+0x28],rcx
  40311c:	48 8d 4c 24 58       	lea    rcx,[rsp+0x58]
  403121:	4c 8d 5c 24 54       	lea    r11,[rsp+0x54]
  403126:	4c 89 5c 24 30       	mov    QWORD PTR [rsp+0x30],r11
  40312b:	e8 a0 f0 ff ff       	call   4021d0 <sgemm_@plt>
  403130:	48 83 c4 68          	add    rsp,0x68
  403134:	c3                   	ret    
  403135:	0f 1f 40 00          	nop    DWORD PTR [rax+0x0]
  403139:	0f 1f 80 00 00 00 00 	nop    DWORD PTR [rax+0x0]

0000000000403140 <wall_time>:
  403140:	48 83 ec 18          	sub    rsp,0x18
  403144:	33 f6                	xor    esi,esi
  403146:	48 8d 3c 24          	lea    rdi,[rsp]
  40314a:	e8 01 f0 ff ff       	call   402150 <gettimeofday@plt>
  40314f:	66 0f ef c9          	pxor   xmm1,xmm1
  403153:	66 0f ef c0          	pxor   xmm0,xmm0
  403157:	f2 48 0f 2a 4c 24 08 	cvtsi2sd xmm1,QWORD PTR [rsp+0x8]
  40315e:	f2 48 0f 2a 04 24    	cvtsi2sd xmm0,QWORD PTR [rsp]
  403164:	f2 0f 59 0d 5c 3c 01 	mulsd  xmm1,QWORD PTR [rip+0x13c5c]        # 416dc8 <test_sizes.659.0.0.7+0x1c8>
  40316b:	00 
  40316c:	f2 0f 58 c1          	addsd  xmm0,xmm1
  403170:	48 83 c4 18          	add    rsp,0x18
  403174:	c3                   	ret    
  403175:	0f 1f 40 00          	nop    DWORD PTR [rax+0x0]
  403179:	0f 1f 80 00 00 00 00 	nop    DWORD PTR [rax+0x0]

0000000000403180 <randint>:
  403180:	41 57                	push   r15
  403182:	53                   	push   rbx
  403183:	56                   	push   rsi
  403184:	89 fb                	mov    ebx,edi
  403186:	33 ff                	xor    edi,edi
  403188:	41 89 f7             	mov    r15d,esi
  40318b:	e8 10 f0 ff ff       	call   4021a0 <time@plt>
  403190:	89 c7                	mov    edi,eax
  403192:	e8 a9 f0 ff ff       	call   402240 <srand@plt>
  403197:	e8 64 f0 ff ff       	call   402200 <rand@plt>
  40319c:	66 0f ef d2          	pxor   xmm2,xmm2
  4031a0:	44 2b fb             	sub    r15d,ebx
  4031a3:	f2 0f 2a d0          	cvtsi2sd xmm2,eax
  4031a7:	f2 0f 5e 15 11 3c 01 	divsd  xmm2,QWORD PTR [rip+0x13c11]        # 416dc0 <test_sizes.659.0.0.7+0x1c0>
  4031ae:	00 
  4031af:	41 ff c7             	inc    r15d
  4031b2:	66 0f ef c9          	pxor   xmm1,xmm1
  4031b6:	f2 41 0f 2a cf       	cvtsi2sd xmm1,r15d
  4031bb:	66 0f ef c0          	pxor   xmm0,xmm0
  4031bf:	f2 0f 2a c3          	cvtsi2sd xmm0,ebx
  4031c3:	f2 0f 59 d1          	mulsd  xmm2,xmm1
  4031c7:	f2 0f 58 c2          	addsd  xmm0,xmm2
  4031cb:	e8 40 22 00 00       	call   405410 <floor>
  4031d0:	f2 0f 2c c0          	cvttsd2si eax,xmm0
  4031d4:	59                   	pop    rcx
  4031d5:	5b                   	pop    rbx
  4031d6:	41 5f                	pop    r15
  4031d8:	c3                   	ret    
  4031d9:	0f 1f 80 00 00 00 00 	nop    DWORD PTR [rax+0x0]

00000000004031e0 <die>:
  4031e0:	56                   	push   rsi
  4031e1:	e8 0a ef ff ff       	call   4020f0 <perror@plt>
  4031e6:	bf 01 00 00 00       	mov    edi,0x1
  4031eb:	e8 90 ef ff ff       	call   402180 <exit@plt>

00000000004031f0 <fill>:
  4031f0:	48 83 ec 18          	sub    rsp,0x18
  4031f4:	33 c0                	xor    eax,eax
  4031f6:	48 63 f6             	movsxd rsi,esi
  4031f9:	48 85 f6             	test   rsi,rsi
  4031fc:	7e 57                	jle    403255 <fill+0x65>
  4031fe:	4c 89 64 24 10       	mov    QWORD PTR [rsp+0x10],r12
  403203:	49 89 c4             	mov    r12,rax
  403206:	4c 89 6c 24 08       	mov    QWORD PTR [rsp+0x8],r13
  40320b:	49 89 f5             	mov    r13,rsi
  40320e:	4c 89 34 24          	mov    QWORD PTR [rsp],r14
  403212:	49 89 fe             	mov    r14,rdi
  403215:	e8 e6 ef ff ff       	call   402200 <rand@plt>
  40321a:	66 0f ef c0          	pxor   xmm0,xmm0
  40321e:	f3 0f 2a c0          	cvtsi2ss xmm0,eax
  403222:	f3 0f 59 05 be 3b 01 	mulss  xmm0,DWORD PTR [rip+0x13bbe]        # 416de8 <test_sizes.659.0.0.7+0x1e8>
  403229:	00 
  40322a:	0f 28 c8             	movaps xmm1,xmm0
  40322d:	f3 0f 5c 0d b7 3b 01 	subss  xmm1,DWORD PTR [rip+0x13bb7]        # 416dec <test_sizes.659.0.0.7+0x1ec>
  403234:	00 
  403235:	f3 0f 58 c8          	addss  xmm1,xmm0
  403239:	f3 43 0f 11 0c a6    	movss  DWORD PTR [r14+r12*4],xmm1
  40323f:	49 ff c4             	inc    r12
  403242:	4d 3b e5             	cmp    r12,r13
  403245:	7c ce                	jl     403215 <fill+0x25>
  403247:	4c 8b 64 24 10       	mov    r12,QWORD PTR [rsp+0x10]
  40324c:	4c 8b 6c 24 08       	mov    r13,QWORD PTR [rsp+0x8]
  403251:	4c 8b 34 24          	mov    r14,QWORD PTR [rsp]
  403255:	48 83 c4 18          	add    rsp,0x18
  403259:	c3                   	ret    
  40325a:	66 0f 1f 44 00 00    	nop    WORD PTR [rax+rax*1+0x0]

0000000000403260 <absolute_value>:
  403260:	85 f6                	test   esi,esi
  403262:	0f 8e bc 00 00 00    	jle    403324 <absolute_value+0xc4>
  403268:	48 63 ce             	movsxd rcx,esi
  40326b:	48 83 f9 08          	cmp    rcx,0x8
  40326f:	0f 8c b0 00 00 00    	jl     403325 <absolute_value+0xc5>
  403275:	48 89 fa             	mov    rdx,rdi
  403278:	48 83 e2 0f          	and    rdx,0xf
  40327c:	85 d2                	test   edx,edx
  40327e:	74 11                	je     403291 <absolute_value+0x31>
  403280:	f6 c2 03             	test   dl,0x3
  403283:	0f 85 9c 00 00 00    	jne    403325 <absolute_value+0xc5>
  403289:	f7 da                	neg    edx
  40328b:	83 c2 10             	add    edx,0x10
  40328e:	c1 ea 02             	shr    edx,0x2
  403291:	89 d0                	mov    eax,edx
  403293:	4c 8d 40 08          	lea    r8,[rax+0x8]
  403297:	49 3b c8             	cmp    rcx,r8
  40329a:	0f 8c 85 00 00 00    	jl     403325 <absolute_value+0xc5>
  4032a0:	41 89 f0             	mov    r8d,esi
  4032a3:	45 33 c9             	xor    r9d,r9d
  4032a6:	44 2b c2             	sub    r8d,edx
  4032a9:	41 83 e0 07          	and    r8d,0x7
  4032ad:	41 2b f0             	sub    esi,r8d
  4032b0:	49 89 f8             	mov    r8,rdi
  4032b3:	48 63 f6             	movsxd rsi,esi
  4032b6:	85 d2                	test   edx,edx
  4032b8:	76 1d                	jbe    4032d7 <absolute_value+0x77>
  4032ba:	f3 41 0f 10 00       	movss  xmm0,DWORD PTR [r8]
  4032bf:	49 ff c1             	inc    r9
  4032c2:	0f 54 05 d7 3a 01 00 	andps  xmm0,XMMWORD PTR [rip+0x13ad7]        # 416da0 <test_sizes.659.0.0.7+0x1a0>
  4032c9:	f3 41 0f 11 00       	movss  DWORD PTR [r8],xmm0
  4032ce:	49 83 c0 04          	add    r8,0x4
  4032d2:	4c 3b c8             	cmp    r9,rax
  4032d5:	72 e3                	jb     4032ba <absolute_value+0x5a>
  4032d7:	0f 10 04 87          	movups xmm0,XMMWORD PTR [rdi+rax*4]
  4032db:	0f 10 4c 87 10       	movups xmm1,XMMWORD PTR [rdi+rax*4+0x10]
  4032e0:	0f 54 05 99 3a 01 00 	andps  xmm0,XMMWORD PTR [rip+0x13a99]        # 416d80 <test_sizes.659.0.0.7+0x180>
  4032e7:	0f 54 0d 92 3a 01 00 	andps  xmm1,XMMWORD PTR [rip+0x13a92]        # 416d80 <test_sizes.659.0.0.7+0x180>
  4032ee:	0f 11 04 87          	movups XMMWORD PTR [rdi+rax*4],xmm0
  4032f2:	0f 11 4c 87 10       	movups XMMWORD PTR [rdi+rax*4+0x10],xmm1
  4032f7:	48 83 c0 08          	add    rax,0x8
  4032fb:	48 3b c6             	cmp    rax,rsi
  4032fe:	72 d7                	jb     4032d7 <absolute_value+0x77>
  403300:	48 8d 04 b7          	lea    rax,[rdi+rsi*4]
  403304:	48 3b f1             	cmp    rsi,rcx
  403307:	73 1b                	jae    403324 <absolute_value+0xc4>
  403309:	f3 0f 10 00          	movss  xmm0,DWORD PTR [rax]
  40330d:	48 ff c6             	inc    rsi
  403310:	0f 54 05 89 3a 01 00 	andps  xmm0,XMMWORD PTR [rip+0x13a89]        # 416da0 <test_sizes.659.0.0.7+0x1a0>
  403317:	f3 0f 11 00          	movss  DWORD PTR [rax],xmm0
  40331b:	48 83 c0 04          	add    rax,0x4
  40331f:	48 3b f1             	cmp    rsi,rcx
  403322:	72 e5                	jb     403309 <absolute_value+0xa9>
  403324:	c3                   	ret    
  403325:	33 f6                	xor    esi,esi
  403327:	eb d7                	jmp    403300 <absolute_value+0xa0>
  403329:	0f 1f 80 00 00 00 00 	nop    DWORD PTR [rax+0x0]

0000000000403330 <square_sgemm>:
  403330:	55                   	push   rbp
  403331:	48 89 e5             	mov    rbp,rsp
  403334:	48 83 e4 c0          	and    rsp,0xffffffffffffffc0
  403338:	53                   	push   rbx
  403339:	48 81 ec 38 03 00 00 	sub    rsp,0x338
  403340:	41 89 fa             	mov    r10d,edi
  403343:	33 c0                	xor    eax,eax
  403345:	49 89 c8             	mov    r8,rcx
  403348:	4d 63 ca             	movsxd r9,r10d
  40334b:	48 89 d3             	mov    rbx,rdx
  40334e:	33 d2                	xor    edx,edx
  403350:	33 c9                	xor    ecx,ecx
  403352:	45 85 d2             	test   r10d,r10d
  403355:	0f 8e d7 0d 00 00    	jle    404132 <square_sgemm+0xe02>
  40335b:	45 89 d3             	mov    r11d,r10d
  40335e:	4c 89 cf             	mov    rdi,r9
  403361:	48 89 54 24 38       	mov    QWORD PTR [rsp+0x38],rdx
  403366:	48 f7 df             	neg    rdi
  403369:	41 c1 e3 07          	shl    r11d,0x7
  40336d:	4a 8d 14 8d 00 00 00 	lea    rdx,[r9*4+0x0]
  403374:	00 
  403375:	48 89 bc 24 c0 00 00 	mov    QWORD PTR [rsp+0xc0],rdi
  40337c:	00 
  40337d:	41 8d ba bf 00 00 00 	lea    edi,[r10+0xbf]
  403384:	48 89 54 24 70       	mov    QWORD PTR [rsp+0x70],rdx
  403389:	ba ab aa aa aa       	mov    edx,0xaaaaaaab
  40338e:	44 89 5c 24 50       	mov    DWORD PTR [rsp+0x50],r11d
  403393:	4d 63 db             	movsxd r11,r11d
  403396:	4c 89 9c 24 a8 00 00 	mov    QWORD PTR [rsp+0xa8],r11
  40339d:	00 
  40339e:	c4 62 6b f6 df       	mulx   r11d,edx,edi
  4033a3:	41 8d 7a 7f          	lea    edi,[r10+0x7f]
  4033a7:	c1 ef 07             	shr    edi,0x7
  4033aa:	89 bc 24 b0 00 00 00 	mov    DWORD PTR [rsp+0xb0],edi
  4033b1:	44 89 d7             	mov    edi,r10d
  4033b4:	c1 e7 04             	shl    edi,0x4
  4033b7:	89 fa                	mov    edx,edi
  4033b9:	41 c1 eb 07          	shr    r11d,0x7
  4033bd:	f7 da                	neg    edx
  4033bf:	44 89 9c 24 38 01 00 	mov    DWORD PTR [rsp+0x138],r11d
  4033c6:	00 
  4033c7:	45 89 d3             	mov    r11d,r10d
  4033ca:	03 d7                	add    edx,edi
  4033cc:	41 f7 db             	neg    r11d
  4033cf:	89 94 24 d8 01 00 00 	mov    DWORD PTR [rsp+0x1d8],edx
  4033d6:	44 03 da             	add    r11d,edx
  4033d9:	44 89 9c 24 d0 01 00 	mov    DWORD PTR [rsp+0x1d0],r11d
  4033e0:	00 
  4033e1:	43 8d 14 12          	lea    edx,[r10+r10*1]
  4033e5:	48 63 d2             	movsxd rdx,edx
  4033e8:	48 89 94 24 b8 00 00 	mov    QWORD PTR [rsp+0xb8],rdx
  4033ef:	00 
  4033f0:	f7 da                	neg    edx
  4033f2:	89 bc 24 e8 01 00 00 	mov    DWORD PTR [rsp+0x1e8],edi
  4033f9:	c7 44 24 30 00 00 00 	mov    DWORD PTR [rsp+0x30],0x0
  403400:	00 
  403401:	4c 89 6c 24 08       	mov    QWORD PTR [rsp+0x8],r13
  403406:	c5 fe 6f 05 52 3a 01 	vmovdqu ymm0,YMMWORD PTR [rip+0x13a52]        # 416e60 <test_sizes.659.0.0.7+0x260>
  40340d:	00 
  40340e:	46 8d 1c 52          	lea    r11d,[rdx+r10*2]
  403412:	41 6b d2 ee          	imul   edx,r10d,0xffffffee
  403416:	03 d7                	add    edx,edi
  403418:	44 89 9c 24 e0 00 00 	mov    DWORD PTR [rsp+0xe0],r11d
  40341f:	00 
  403420:	4c 89 8c 24 20 02 00 	mov    QWORD PTR [rsp+0x220],r9
  403427:	00 
  403428:	44 89 94 24 88 02 00 	mov    DWORD PTR [rsp+0x288],r10d
  40342f:	00 
  403430:	48 89 74 24 60       	mov    QWORD PTR [rsp+0x60],rsi
  403435:	46 8d 1c 52          	lea    r11d,[rdx+r10*2]
  403439:	44 89 9c 24 c8 01 00 	mov    DWORD PTR [rsp+0x1c8],r11d
  403440:	00 
  403441:	41 8d 14 3a          	lea    edx,[r10+rdi*1]
  403445:	f7 da                	neg    edx
  403447:	03 d7                	add    edx,edi
  403449:	48 89 5c 24 20       	mov    QWORD PTR [rsp+0x20],rbx
  40344e:	4c 89 44 24 28       	mov    QWORD PTR [rsp+0x28],r8
  403453:	4c 89 24 24          	mov    QWORD PTR [rsp],r12
  403457:	4c 89 74 24 10       	mov    QWORD PTR [rsp+0x10],r14
  40345c:	42 8d 3c 52          	lea    edi,[rdx+r10*2]
  403460:	48 8b 54 24 38       	mov    rdx,QWORD PTR [rsp+0x38]
  403465:	44 8b 6c 24 30       	mov    r13d,DWORD PTR [rsp+0x30]
  40346a:	89 bc 24 a8 01 00 00 	mov    DWORD PTR [rsp+0x1a8],edi
  403471:	4c 89 7c 24 18       	mov    QWORD PTR [rsp+0x18],r15
  403476:	44 8b a4 24 88 02 00 	mov    r12d,DWORD PTR [rsp+0x288]
  40347d:	00 
  40347e:	41 b8 80 00 00 00    	mov    r8d,0x80
  403484:	4d 63 ed             	movsxd r13,r13d
  403487:	45 33 c9             	xor    r9d,r9d
  40348a:	48 8b 5c 24 28       	mov    rbx,QWORD PTR [rsp+0x28]
  40348f:	48 8b 7c 24 20       	mov    rdi,QWORD PTR [rsp+0x20]
  403494:	44 03 e1             	add    r12d,ecx
  403497:	41 81 fc 80 00 00 00 	cmp    r12d,0x80
  40349e:	4a 8d 34 ab          	lea    rsi,[rbx+r13*4]
  4034a2:	48 89 b4 24 30 01 00 	mov    QWORD PTR [rsp+0x130],rsi
  4034a9:	00 
  4034aa:	45 0f 4d e0          	cmovge r12d,r8d
  4034ae:	4e 8d 14 af          	lea    r10,[rdi+r13*4]
  4034b2:	44 89 e3             	mov    ebx,r12d
  4034b5:	45 33 c0             	xor    r8d,r8d
  4034b8:	4c 89 54 24 68       	mov    QWORD PTR [rsp+0x68],r10
  4034bd:	81 e3 07 00 00 80    	and    ebx,0x80000007
  4034c3:	7d 08                	jge    4034cd <square_sgemm+0x19d>
  4034c5:	83 eb 01             	sub    ebx,0x1
  4034c8:	83 cb f8             	or     ebx,0xfffffff8
  4034cb:	ff c3                	inc    ebx
  4034cd:	4c 8b 5c 24 70       	mov    r11,QWORD PTR [rsp+0x70]
  4034d2:	41 8d 74 24 07       	lea    esi,[r12+0x7]
  4034d7:	4c 0f af da          	imul   r11,rdx
  4034db:	48 8b 7c 24 28       	mov    rdi,QWORD PTR [rsp+0x28]
  4034e0:	45 8d 7c 24 0f       	lea    r15d,[r12+0xf]
  4034e5:	45 89 e6             	mov    r14d,r12d
  4034e8:	c1 ee 03             	shr    esi,0x3
  4034eb:	41 c1 ef 04          	shr    r15d,0x4
  4034ef:	4e 8d 14 1f          	lea    r10,[rdi+r11*1]
  4034f3:	4c 03 5c 24 20       	add    r11,QWORD PTR [rsp+0x20]
  4034f8:	4c 89 94 24 00 01 00 	mov    QWORD PTR [rsp+0x100],r10
  4034ff:	00 
  403500:	41 81 e6 0f 00 00 80 	and    r14d,0x8000000f
  403507:	7d 0b                	jge    403514 <square_sgemm+0x1e4>
  403509:	41 83 ee 01          	sub    r14d,0x1
  40350d:	41 83 ce f0          	or     r14d,0xfffffff0
  403511:	41 ff c6             	inc    r14d
  403514:	41 f7 de             	neg    r14d
  403517:	45 33 d2             	xor    r10d,r10d
  40351a:	45 03 f4             	add    r14d,r12d
  40351d:	33 ff                	xor    edi,edi
  40351f:	44 0f af b4 24 88 02 	imul   r14d,DWORD PTR [rsp+0x288]
  403526:	00 00 
  403528:	44 89 94 24 90 00 00 	mov    DWORD PTR [rsp+0x90],r10d
  40352f:	00 
  403530:	48 89 bc 24 80 00 00 	mov    QWORD PTR [rsp+0x80],rdi
  403537:	00 
  403538:	48 89 54 24 38       	mov    QWORD PTR [rsp+0x38],rdx
  40353d:	89 44 24 48          	mov    DWORD PTR [rsp+0x48],eax
  403541:	44 89 74 24 78       	mov    DWORD PTR [rsp+0x78],r14d
  403546:	44 89 bc 24 e0 01 00 	mov    DWORD PTR [rsp+0x1e0],r15d
  40354d:	00 
  40354e:	4c 89 5c 24 58       	mov    QWORD PTR [rsp+0x58],r11
  403553:	89 b4 24 f0 01 00 00 	mov    DWORD PTR [rsp+0x1f0],esi
  40355a:	89 9c 24 10 01 00 00 	mov    DWORD PTR [rsp+0x110],ebx
  403561:	44 89 a4 24 08 01 00 	mov    DWORD PTR [rsp+0x108],r12d
  403568:	00 
  403569:	44 89 6c 24 30       	mov    DWORD PTR [rsp+0x30],r13d
  40356e:	89 4c 24 40          	mov    DWORD PTR [rsp+0x40],ecx
  403572:	48 89 fa             	mov    rdx,rdi
  403575:	44 89 d0             	mov    eax,r10d
  403578:	4d 63 d2             	movsxd r10,r10d
  40357b:	41 bf 80 00 00 00    	mov    r15d,0x80
  403581:	48 8b 74 24 68       	mov    rsi,QWORD PTR [rsp+0x68]
  403586:	33 db                	xor    ebx,ebx
  403588:	8b 8c 24 88 02 00 00 	mov    ecx,DWORD PTR [rsp+0x288]
  40358f:	4c 8b 5c 24 60       	mov    r11,QWORD PTR [rsp+0x60]
  403594:	4c 8b 64 24 58       	mov    r12,QWORD PTR [rsp+0x58]
  403599:	4e 8d 2c 96          	lea    r13,[rsi+r10*4]
  40359d:	48 8b 74 24 70       	mov    rsi,QWORD PTR [rsp+0x70]
  4035a2:	03 c8                	add    ecx,eax
  4035a4:	49 0f af f0          	imul   rsi,r8
  4035a8:	81 f9 80 00 00 00    	cmp    ecx,0x80
  4035ae:	4d 8d 34 93          	lea    r14,[r11+rdx*4]
  4035b2:	4c 89 ac 24 c0 01 00 	mov    QWORD PTR [rsp+0x1c0],r13
  4035b9:	00 
  4035ba:	4f 8d 04 84          	lea    r8,[r12+r8*4]
  4035be:	41 0f 4d cf          	cmovge ecx,r15d
  4035c2:	49 03 f3             	add    rsi,r11
  4035c5:	4c 63 e9             	movsxd r13,ecx
  4035c8:	41 89 cb             	mov    r11d,ecx
  4035cb:	4c 89 b4 24 28 01 00 	mov    QWORD PTR [rsp+0x128],r14
  4035d2:	00 
  4035d3:	4d 89 ee             	mov    r14,r13
  4035d6:	4c 89 84 24 f8 01 00 	mov    QWORD PTR [rsp+0x1f8],r8
  4035dd:	00 
  4035de:	41 89 cc             	mov    r12d,ecx
  4035e1:	49 c1 e6 06          	shl    r14,0x6
  4035e5:	45 33 ff             	xor    r15d,r15d
  4035e8:	41 c1 eb 04          	shr    r11d,0x4
  4035ec:	4e 8d 04 ad 00 00 00 	lea    r8,[r13*4+0x0]
  4035f3:	00 
  4035f4:	4c 89 84 24 58 02 00 	mov    QWORD PTR [rsp+0x258],r8
  4035fb:	00 
  4035fc:	41 89 c8             	mov    r8d,ecx
  4035ff:	41 c1 e8 05          	shr    r8d,0x5
  403603:	41 d1 ec             	shr    r12d,1
  403606:	89 9c 24 f0 00 00 00 	mov    DWORD PTR [rsp+0xf0],ebx
  40360d:	89 9c 24 e8 00 00 00 	mov    DWORD PTR [rsp+0xe8],ebx
  403614:	4c 89 b4 24 c8 00 00 	mov    QWORD PTR [rsp+0xc8],r14
  40361b:	00 
  40361c:	4c 89 ac 24 f8 02 00 	mov    QWORD PTR [rsp+0x2f8],r13
  403623:	00 
  403624:	4c 89 bc 24 20 01 00 	mov    QWORD PTR [rsp+0x120],r15
  40362b:	00 
  40362c:	44 89 a4 24 d8 00 00 	mov    DWORD PTR [rsp+0xd8],r12d
  403633:	00 
  403634:	44 89 9c 24 48 02 00 	mov    DWORD PTR [rsp+0x248],r11d
  40363b:	00 
  40363c:	44 89 84 24 50 02 00 	mov    DWORD PTR [rsp+0x250],r8d
  403643:	00 
  403644:	48 89 b4 24 f8 00 00 	mov    QWORD PTR [rsp+0xf8],rsi
  40364b:	00 
  40364c:	89 9c 24 18 01 00 00 	mov    DWORD PTR [rsp+0x118],ebx
  403653:	89 8c 24 a8 02 00 00 	mov    DWORD PTR [rsp+0x2a8],ecx
  40365a:	48 89 94 24 80 00 00 	mov    QWORD PTR [rsp+0x80],rdx
  403661:	00 
  403662:	48 89 bc 24 88 00 00 	mov    QWORD PTR [rsp+0x88],rdi
  403669:	00 
  40366a:	89 84 24 90 00 00 00 	mov    DWORD PTR [rsp+0x90],eax
  403671:	44 89 94 24 98 00 00 	mov    DWORD PTR [rsp+0x98],r10d
  403678:	00 
  403679:	44 89 8c 24 a0 00 00 	mov    DWORD PTR [rsp+0xa0],r9d
  403680:	00 
  403681:	44 8b ac 24 e8 00 00 	mov    r13d,DWORD PTR [rsp+0xe8]
  403688:	00 
  403689:	44 8b b4 24 f0 00 00 	mov    r14d,DWORD PTR [rsp+0xf0]
  403690:	00 
  403691:	44 8b a4 24 88 02 00 	mov    r12d,DWORD PTR [rsp+0x288]
  403698:	00 
  403699:	bb c0 00 00 00       	mov    ebx,0xc0
  40369e:	4d 63 f6             	movsxd r14,r14d
  4036a1:	48 8b 84 24 28 01 00 	mov    rax,QWORD PTR [rsp+0x128]
  4036a8:	00 
  4036a9:	48 8b 8c 24 30 01 00 	mov    rcx,QWORD PTR [rsp+0x130]
  4036b0:	00 
  4036b1:	45 03 e5             	add    r12d,r13d
  4036b4:	41 81 fc c0 00 00 00 	cmp    r12d,0xc0
  4036bb:	44 0f 4d e3          	cmovge r12d,ebx
  4036bf:	4a 8d 1c b0          	lea    rbx,[rax+r14*4]
  4036c3:	44 89 e0             	mov    eax,r12d
  4036c6:	4a 8d 34 b1          	lea    rsi,[rcx+r14*4]
  4036ca:	48 89 b4 24 b8 01 00 	mov    QWORD PTR [rsp+0x1b8],rsi
  4036d1:	00 
  4036d2:	25 1f 00 00 80       	and    eax,0x8000001f
  4036d7:	7d 08                	jge    4036e1 <square_sgemm+0x3b1>
  4036d9:	83 e8 01             	sub    eax,0x1
  4036dc:	83 c8 e0             	or     eax,0xffffffe0
  4036df:	ff c0                	inc    eax
  4036e1:	85 c0                	test   eax,eax
  4036e3:	0f 85 4c 01 00 00    	jne    403835 <square_sgemm+0x505>
  4036e9:	83 bc 24 10 01 00 00 	cmp    DWORD PTR [rsp+0x110],0x0
  4036f0:	00 
  4036f1:	0f 85 3e 01 00 00    	jne    403835 <square_sgemm+0x505>
  4036f7:	33 c9                	xor    ecx,ecx
  4036f9:	45 33 c0             	xor    r8d,r8d
  4036fc:	83 bc 24 08 01 00 00 	cmp    DWORD PTR [rsp+0x108],0x0
  403703:	00 
  403704:	0f 8e 44 09 00 00    	jle    40404e <square_sgemm+0xd1e>
  40370a:	48 8b 9c 24 f8 00 00 	mov    rbx,QWORD PTR [rsp+0xf8]
  403711:	00 
  403712:	41 8d 74 24 1f       	lea    esi,[r12+0x1f]
  403717:	48 8b 84 24 00 01 00 	mov    rax,QWORD PTR [rsp+0x100]
  40371e:	00 
  40371f:	44 89 e2             	mov    edx,r12d
  403722:	c1 ee 05             	shr    esi,0x5
  403725:	4c 8b 94 24 f8 01 00 	mov    r10,QWORD PTR [rsp+0x1f8]
  40372c:	00 
  40372d:	4a 8d 1c bb          	lea    rbx,[rbx+r15*4]
  403731:	44 8b 9c 24 f0 01 00 	mov    r11d,DWORD PTR [rsp+0x1f0]
  403738:	00 
  403739:	4a 8d 04 b8          	lea    rax,[rax+r15*4]
  40373d:	44 8b bc 24 88 02 00 	mov    r15d,DWORD PTR [rsp+0x288]
  403744:	00 
  403745:	89 b4 24 b8 02 00 00 	mov    DWORD PTR [rsp+0x2b8],esi
  40374c:	44 89 ac 24 e8 00 00 	mov    DWORD PTR [rsp+0xe8],r13d
  403753:	00 
  403754:	44 89 b4 24 f0 00 00 	mov    DWORD PTR [rsp+0xf0],r14d
  40375b:	00 
  40375c:	45 33 f6             	xor    r14d,r14d
  40375f:	45 33 ed             	xor    r13d,r13d
  403762:	85 d2                	test   edx,edx
  403764:	0f 8e a7 00 00 00    	jle    403811 <square_sgemm+0x4e1>
  40376a:	4d 63 c0             	movsxd r8,r8d
  40376d:	48 89 84 24 10 02 00 	mov    QWORD PTR [rsp+0x210],rax
  403774:	00 
  403775:	44 89 84 24 08 02 00 	mov    DWORD PTR [rsp+0x208],r8d
  40377c:	00 
  40377d:	89 8c 24 00 02 00 00 	mov    DWORD PTR [rsp+0x200],ecx
  403784:	89 94 24 a0 02 00 00 	mov    DWORD PTR [rsp+0x2a0],edx
  40378b:	4f 8d 0c 82          	lea    r9,[r10+r8*4]
  40378f:	4c 89 8c 24 b0 02 00 	mov    QWORD PTR [rsp+0x2b0],r9
  403796:	00 
  403797:	4e 8d 24 80          	lea    r12,[rax+r8*4]
  40379b:	48 83 c4 f0          	add    rsp,0xfffffffffffffff0
  40379f:	4b 8d 04 2c          	lea    rax,[r12+r13*1]
  4037a3:	44 89 ff             	mov    edi,r15d
  4037a6:	4e 8d 04 2b          	lea    r8,[rbx+r13*1]
  4037aa:	44 89 fe             	mov    esi,r15d
  4037ad:	44 89 fa             	mov    edx,r15d
  4037b0:	48 89 04 24          	mov    QWORD PTR [rsp],rax
  4037b4:	8b 8c 24 b8 02 00 00 	mov    ecx,DWORD PTR [rsp+0x2b8]
  4037bb:	4c 8b 8c 24 c0 02 00 	mov    r9,QWORD PTR [rsp+0x2c0]
  4037c2:	00 
  4037c3:	c5 f8 77             	vzeroupper 
  4037c6:	e8 f5 18 00 00       	call   4050c0 <do_block_avx_32k8>
  4037cb:	48 83 c4 10          	add    rsp,0x10
  4037cf:	41 ff c6             	inc    r14d
  4037d2:	49 81 c5 80 00 00 00 	add    r13,0x80
  4037d9:	44 3b b4 24 b8 02 00 	cmp    r14d,DWORD PTR [rsp+0x2b8]
  4037e0:	00 
  4037e1:	72 b8                	jb     40379b <square_sgemm+0x46b>
  4037e3:	48 8b 84 24 10 02 00 	mov    rax,QWORD PTR [rsp+0x210]
  4037ea:	00 
  4037eb:	44 8b 84 24 08 02 00 	mov    r8d,DWORD PTR [rsp+0x208]
  4037f2:	00 
  4037f3:	8b 8c 24 00 02 00 00 	mov    ecx,DWORD PTR [rsp+0x200]
  4037fa:	8b 94 24 a0 02 00 00 	mov    edx,DWORD PTR [rsp+0x2a0]
  403801:	4c 8b 94 24 f8 01 00 	mov    r10,QWORD PTR [rsp+0x1f8]
  403808:	00 
  403809:	44 8b 9c 24 f0 01 00 	mov    r11d,DWORD PTR [rsp+0x1f0]
  403810:	00 
  403811:	ff c1                	inc    ecx
  403813:	47 8d 04 f8          	lea    r8d,[r8+r15*8]
  403817:	41 3b cb             	cmp    ecx,r11d
  40381a:	0f 82 3c ff ff ff    	jb     40375c <square_sgemm+0x42c>
  403820:	44 8b ac 24 e8 00 00 	mov    r13d,DWORD PTR [rsp+0xe8]
  403827:	00 
  403828:	44 8b b4 24 f0 00 00 	mov    r14d,DWORD PTR [rsp+0xf0]
  40382f:	00 
  403830:	e9 19 08 00 00       	jmp    40404e <square_sgemm+0xd1e>
  403835:	be 40 00 00 00       	mov    esi,0x40
  40383a:	48 8b bc 24 c8 00 00 	mov    rdi,QWORD PTR [rsp+0xc8]
  403841:	00 
  403842:	c5 f8 77             	vzeroupper 
  403845:	e8 96 d2 00 00       	call   410ae0 <_mm_malloc>
  40384a:	48 89 84 24 68 02 00 	mov    QWORD PTR [rsp+0x268],rax
  403851:	00 
  403852:	be 40 00 00 00       	mov    esi,0x40
  403857:	48 8b bc 24 c8 00 00 	mov    rdi,QWORD PTR [rsp+0xc8]
  40385e:	00 
  40385f:	e8 7c d2 00 00       	call   410ae0 <_mm_malloc>
  403864:	48 89 84 24 60 02 00 	mov    QWORD PTR [rsp+0x260],rax
  40386b:	00 
  40386c:	bf 00 04 00 00       	mov    edi,0x400
  403871:	be 40 00 00 00       	mov    esi,0x40
  403876:	e8 65 d2 00 00       	call   410ae0 <_mm_malloc>
  40387b:	48 89 84 24 70 02 00 	mov    QWORD PTR [rsp+0x270],rax
  403882:	00 
  403883:	44 89 e1             	mov    ecx,r12d
  403886:	81 e1 0f 00 00 80    	and    ecx,0x8000000f
  40388c:	7d 08                	jge    403896 <square_sgemm+0x566>
  40388e:	83 e9 01             	sub    ecx,0x1
  403891:	83 c9 f0             	or     ecx,0xfffffff0
  403894:	ff c1                	inc    ecx
  403896:	48 63 c9             	movsxd rcx,ecx
  403899:	33 f6                	xor    esi,esi
  40389b:	48 8b 94 24 20 02 00 	mov    rdx,QWORD PTR [rsp+0x220]
  4038a2:	00 
  4038a3:	48 63 84 24 e0 00 00 	movsxd rax,DWORD PTR [rsp+0xe0]
  4038aa:	00 
  4038ab:	83 bc 24 a8 02 00 00 	cmp    DWORD PTR [rsp+0x2a8],0x0
  4038b2:	00 
  4038b3:	0f 8e 11 01 00 00    	jle    4039ca <square_sgemm+0x69a>
  4038b9:	bf 01 00 00 00       	mov    edi,0x1
  4038be:	83 bc 24 d8 00 00 00 	cmp    DWORD PTR [rsp+0xd8],0x0
  4038c5:	00 
  4038c6:	74 62                	je     40392a <square_sgemm+0x5fa>
  4038c8:	4d 63 c4             	movsxd r8,r12d
  4038cb:	4d 03 c7             	add    r8,r15
  4038ce:	4c 2b c1             	sub    r8,rcx
  4038d1:	48 8b bc 24 f8 00 00 	mov    rdi,QWORD PTR [rsp+0xf8]
  4038d8:	00 
  4038d9:	4c 8b 8c 24 68 02 00 	mov    r9,QWORD PTR [rsp+0x268]
  4038e0:	00 
  4038e1:	44 8b 94 24 d8 00 00 	mov    r10d,DWORD PTR [rsp+0xd8]
  4038e8:	00 
  4038e9:	4c 8b 9c 24 b8 00 00 	mov    r11,QWORD PTR [rsp+0xb8]
  4038f0:	00 
  4038f1:	4a 8d 3c 87          	lea    rdi,[rdi+r8*4]
  4038f5:	4c 63 c6             	movsxd r8,esi
  4038f8:	ff c6                	inc    esi
  4038fa:	62 f1 7c 48 10 04 87 	vmovups zmm0,ZMMWORD PTR [rdi+rax*4]
  403901:	49 03 c3             	add    rax,r11
  403904:	62 f1 7c 48 10 0c 97 	vmovups zmm1,ZMMWORD PTR [rdi+rdx*4]
  40390b:	49 c1 e0 07          	shl    r8,0x7
  40390f:	49 03 d3             	add    rdx,r11
  403912:	62 91 7c 48 11 04 01 	vmovups ZMMWORD PTR [r9+r8*1],zmm0
  403919:	62 91 7c 48 11 4c 01 	vmovups ZMMWORD PTR [r9+r8*1+0x40],zmm1
  403920:	01 
  403921:	41 3b f2             	cmp    esi,r10d
  403924:	72 cf                	jb     4038f5 <square_sgemm+0x5c5>
  403926:	8d 7c 36 01          	lea    edi,[rsi+rsi*1+0x1]
  40392a:	8d 47 ff             	lea    eax,[rdi-0x1]
  40392d:	3b 84 24 a8 02 00 00 	cmp    eax,DWORD PTR [rsp+0x2a8]
  403934:	73 46                	jae    40397c <square_sgemm+0x64c>
  403936:	49 63 f4             	movsxd rsi,r12d
  403939:	48 03 b4 24 c0 00 00 	add    rsi,QWORD PTR [rsp+0xc0]
  403940:	00 
  403941:	48 63 ff             	movsxd rdi,edi
  403944:	48 2b f1             	sub    rsi,rcx
  403947:	48 8b 8c 24 20 02 00 	mov    rcx,QWORD PTR [rsp+0x220]
  40394e:	00 
  40394f:	48 0f af cf          	imul   rcx,rdi
  403953:	48 03 f1             	add    rsi,rcx
  403956:	49 03 f7             	add    rsi,r15
  403959:	48 8b 84 24 f8 00 00 	mov    rax,QWORD PTR [rsp+0xf8]
  403960:	00 
  403961:	4c 8b 84 24 68 02 00 	mov    r8,QWORD PTR [rsp+0x268]
  403968:	00 
  403969:	48 c1 e7 06          	shl    rdi,0x6
  40396d:	62 f1 7c 48 10 04 b0 	vmovups zmm0,ZMMWORD PTR [rax+rsi*4]
  403974:	62 b1 7c 48 11 44 07 	vmovups ZMMWORD PTR [rdi+r8*1-0x40],zmm0
  40397b:	ff 
  40397c:	33 f6                	xor    esi,esi
  40397e:	48 89 9c 24 40 01 00 	mov    QWORD PTR [rsp+0x140],rbx
  403985:	00 
  403986:	44 89 a4 24 a0 02 00 	mov    DWORD PTR [rsp+0x2a0],r12d
  40398d:	00 
  40398e:	44 89 ac 24 e8 00 00 	mov    DWORD PTR [rsp+0xe8],r13d
  403995:	00 
  403996:	44 89 b4 24 f0 00 00 	mov    DWORD PTR [rsp+0xf0],r14d
  40399d:	00 
  40399e:	4c 89 bc 24 d0 00 00 	mov    QWORD PTR [rsp+0xd0],r15
  4039a5:	00 
  4039a6:	41 89 f7             	mov    r15d,esi
  4039a9:	4c 8b ac 24 60 02 00 	mov    r13,QWORD PTR [rsp+0x260]
  4039b0:	00 
  4039b1:	4c 8b a4 24 f8 01 00 	mov    r12,QWORD PTR [rsp+0x1f8]
  4039b8:	00 
  4039b9:	8b 5c 24 78          	mov    ebx,DWORD PTR [rsp+0x78]
  4039bd:	44 8b b4 24 88 02 00 	mov    r14d,DWORD PTR [rsp+0x288]
  4039c4:	00 
  4039c5:	e9 bf 00 00 00       	jmp    403a89 <square_sgemm+0x759>
  4039ca:	48 89 9c 24 40 01 00 	mov    QWORD PTR [rsp+0x140],rbx
  4039d1:	00 
  4039d2:	33 c0                	xor    eax,eax
  4039d4:	44 89 a4 24 a0 02 00 	mov    DWORD PTR [rsp+0x2a0],r12d
  4039db:	00 
  4039dc:	44 89 ac 24 e8 00 00 	mov    DWORD PTR [rsp+0xe8],r13d
  4039e3:	00 
  4039e4:	44 89 b4 24 f0 00 00 	mov    DWORD PTR [rsp+0xf0],r14d
  4039eb:	00 
  4039ec:	4c 89 bc 24 d0 00 00 	mov    QWORD PTR [rsp+0xd0],r15
  4039f3:	00 
  4039f4:	41 89 f7             	mov    r15d,esi
  4039f7:	4c 8b ac 24 60 02 00 	mov    r13,QWORD PTR [rsp+0x260]
  4039fe:	00 
  4039ff:	4c 8b a4 24 f8 01 00 	mov    r12,QWORD PTR [rsp+0x1f8]
  403a06:	00 
  403a07:	8b 5c 24 78          	mov    ebx,DWORD PTR [rsp+0x78]
  403a0b:	44 8b b4 24 88 02 00 	mov    r14d,DWORD PTR [rsp+0x288]
  403a12:	00 
  403a13:	3b 84 24 a8 02 00 00 	cmp    eax,DWORD PTR [rsp+0x2a8]
  403a1a:	7d 60                	jge    403a7c <square_sgemm+0x74c>
  403a1c:	8d 70 01             	lea    esi,[rax+0x1]
  403a1f:	f7 de                	neg    esi
  403a21:	03 b4 24 a8 02 00 00 	add    esi,DWORD PTR [rsp+0x2a8]
  403a28:	ff c6                	inc    esi
  403a2a:	83 fe 18             	cmp    esi,0x18
  403a2d:	0f 8e f9 0d 00 00    	jle    40482c <square_sgemm+0x14fc>
  403a33:	49 63 cf             	movsxd rcx,r15d
  403a36:	45 89 f9             	mov    r9d,r15d
  403a39:	4c 8b 84 24 58 02 00 	mov    r8,QWORD PTR [rsp+0x258]
  403a40:	00 
  403a41:	49 0f af c8          	imul   rcx,r8
  403a45:	45 0f af ce          	imul   r9d,r14d
  403a49:	48 63 c0             	movsxd rax,eax
  403a4c:	44 03 cb             	add    r9d,ebx
  403a4f:	4d 63 c9             	movsxd r9,r9d
  403a52:	c5 f8 77             	vzeroupper 
  403a55:	48 8d 14 85 04 00 00 	lea    rdx,[rax*4+0x4]
  403a5c:	00 
  403a5d:	48 f7 da             	neg    rdx
  403a60:	49 8d 7c 85 00       	lea    rdi,[r13+rax*4+0x0]
  403a65:	49 03 d0             	add    rdx,r8
  403a68:	4d 8d 14 84          	lea    r10,[r12+rax*4]
  403a6c:	48 03 f9             	add    rdi,rcx
  403a6f:	48 83 c2 04          	add    rdx,0x4
  403a73:	4b 8d 34 8a          	lea    rsi,[r10+r9*4]
  403a77:	e8 14 ee 00 00       	call   412890 <__intel_avx_rep_memcpy>
  403a7c:	41 ff c7             	inc    r15d
  403a7f:	41 83 ff 10          	cmp    r15d,0x10
  403a83:	0f 83 c7 00 00 00    	jae    403b50 <square_sgemm+0x820>
  403a89:	33 c0                	xor    eax,eax
  403a8b:	83 bc 24 a8 02 00 00 	cmp    DWORD PTR [rsp+0x2a8],0xf
  403a92:	0f 
  403a93:	0f 8e 7a ff ff ff    	jle    403a13 <square_sgemm+0x6e3>
  403a99:	33 c9                	xor    ecx,ecx
  403a9b:	bf 01 00 00 00       	mov    edi,0x1
  403aa0:	33 d2                	xor    edx,edx
  403aa2:	83 bc 24 50 02 00 00 	cmp    DWORD PTR [rsp+0x250],0x0
  403aa9:	00 
  403aaa:	74 5c                	je     403b08 <square_sgemm+0x7d8>
  403aac:	44 89 ff             	mov    edi,r15d
  403aaf:	44 89 f8             	mov    eax,r15d
  403ab2:	41 0f af fe          	imul   edi,r14d
  403ab6:	0f af 84 24 a8 02 00 	imul   eax,DWORD PTR [rsp+0x2a8]
  403abd:	00 
  403abe:	44 8b 94 24 50 02 00 	mov    r10d,DWORD PTR [rsp+0x250]
  403ac5:	00 
  403ac6:	03 fb                	add    edi,ebx
  403ac8:	ff c1                	inc    ecx
  403aca:	44 8d 04 17          	lea    r8d,[rdi+rdx*1]
  403ace:	4d 63 c0             	movsxd r8,r8d
  403ad1:	44 8d 0c 10          	lea    r9d,[rax+rdx*1]
  403ad5:	4d 63 c9             	movsxd r9,r9d
  403ad8:	83 c2 20             	add    edx,0x20
  403adb:	62 91 7c 48 10 04 84 	vmovups zmm0,ZMMWORD PTR [r12+r8*4]
  403ae2:	62 91 7c 48 10 4c 84 	vmovups zmm1,ZMMWORD PTR [r12+r8*4+0x40]
  403ae9:	01 
  403aea:	62 91 7c 48 11 44 8d 	vmovups ZMMWORD PTR [r13+r9*4+0x0],zmm0
  403af1:	00 
  403af2:	62 91 7c 48 11 4c 8d 	vmovups ZMMWORD PTR [r13+r9*4+0x40],zmm1
  403af9:	01 
  403afa:	41 3b ca             	cmp    ecx,r10d
  403afd:	72 c9                	jb     403ac8 <square_sgemm+0x798>
  403aff:	89 c8                	mov    eax,ecx
  403b01:	8d 7c 09 01          	lea    edi,[rcx+rcx*1+0x1]
  403b05:	c1 e0 05             	shl    eax,0x5
  403b08:	8d 57 ff             	lea    edx,[rdi-0x1]
  403b0b:	3b 94 24 48 02 00 00 	cmp    edx,DWORD PTR [rsp+0x248]
  403b12:	0f 83 fb fe ff ff    	jae    403a13 <square_sgemm+0x6e3>
  403b18:	44 89 f8             	mov    eax,r15d
  403b1b:	44 89 fa             	mov    edx,r15d
  403b1e:	41 0f af c6          	imul   eax,r14d
  403b22:	0f af 94 24 a8 02 00 	imul   edx,DWORD PTR [rsp+0x2a8]
  403b29:	00 
  403b2a:	c1 e7 04             	shl    edi,0x4
  403b2d:	03 c3                	add    eax,ebx
  403b2f:	03 c7                	add    eax,edi
  403b31:	03 d7                	add    edx,edi
  403b33:	48 63 c0             	movsxd rax,eax
  403b36:	48 63 d2             	movsxd rdx,edx
  403b39:	62 d1 7c 48 10 44 84 	vmovups zmm0,ZMMWORD PTR [r12+rax*4-0x40]
  403b40:	ff 
  403b41:	89 f8                	mov    eax,edi
  403b43:	62 d1 7c 48 11 44 95 	vmovups ZMMWORD PTR [r13+rdx*4-0x40],zmm0
  403b4a:	ff 
  403b4b:	e9 c3 fe ff ff       	jmp    403a13 <square_sgemm+0x6e3>
  403b50:	33 c9                	xor    ecx,ecx
  403b52:	8b b4 24 08 01 00 00 	mov    esi,DWORD PTR [rsp+0x108]
  403b59:	33 d2                	xor    edx,edx
  403b5b:	48 8b 9c 24 40 01 00 	mov    rbx,QWORD PTR [rsp+0x140]
  403b62:	00 
  403b63:	44 8b a4 24 a0 02 00 	mov    r12d,DWORD PTR [rsp+0x2a0]
  403b6a:	00 
  403b6b:	44 8b ac 24 e8 00 00 	mov    r13d,DWORD PTR [rsp+0xe8]
  403b72:	00 
  403b73:	44 8b b4 24 f0 00 00 	mov    r14d,DWORD PTR [rsp+0xf0]
  403b7a:	00 
  403b7b:	4c 8b bc 24 d0 00 00 	mov    r15,QWORD PTR [rsp+0xd0]
  403b82:	00 
  403b83:	85 f6                	test   esi,esi
  403b85:	0f 8e 99 04 00 00    	jle    404024 <square_sgemm+0xcf4>
  403b8b:	48 8b 84 24 00 01 00 	mov    rax,QWORD PTR [rsp+0x100]
  403b92:	00 
  403b93:	41 8d 7c 24 0f       	lea    edi,[r12+0xf]
  403b98:	c1 ef 04             	shr    edi,0x4
  403b9b:	89 bc 24 98 02 00 00 	mov    DWORD PTR [rsp+0x298],edi
  403ba2:	48 89 9c 24 40 01 00 	mov    QWORD PTR [rsp+0x140],rbx
  403ba9:	00 
  403baa:	4e 8d 04 b8          	lea    r8,[rax+r15*4]
  403bae:	4c 89 84 24 28 02 00 	mov    QWORD PTR [rsp+0x228],r8
  403bb5:	00 
  403bb6:	b8 10 00 00 00       	mov    eax,0x10
  403bbb:	44 89 a4 24 a0 02 00 	mov    DWORD PTR [rsp+0x2a0],r12d
  403bc2:	00 
  403bc3:	44 89 ac 24 e8 00 00 	mov    DWORD PTR [rsp+0xe8],r13d
  403bca:	00 
  403bcb:	44 89 b4 24 f0 00 00 	mov    DWORD PTR [rsp+0xf0],r14d
  403bd2:	00 
  403bd3:	45 33 db             	xor    r11d,r11d
  403bd6:	83 fe 10             	cmp    esi,0x10
  403bd9:	41 89 c5             	mov    r13d,eax
  403bdc:	44 0f 4c ee          	cmovl  r13d,esi
  403be0:	45 33 f6             	xor    r14d,r14d
  403be3:	45 33 e4             	xor    r12d,r12d
  403be6:	83 bc 24 a0 02 00 00 	cmp    DWORD PTR [rsp+0x2a0],0x0
  403bed:	00 
  403bee:	0f 8e 07 04 00 00    	jle    403ffb <square_sgemm+0xccb>
  403bf4:	44 8b bc 24 c8 01 00 	mov    r15d,DWORD PTR [rsp+0x1c8]
  403bfb:	00 
  403bfc:	45 89 e8             	mov    r8d,r13d
  403bff:	48 63 d2             	movsxd rdx,edx
  403c02:	4c 8b 94 24 b8 01 00 	mov    r10,QWORD PTR [rsp+0x1b8]
  403c09:	00 
  403c0a:	4c 8b 8c 24 c0 01 00 	mov    r9,QWORD PTR [rsp+0x1c0]
  403c11:	00 
  403c12:	44 03 fa             	add    r15d,edx
  403c15:	8b bc 24 d8 01 00 00 	mov    edi,DWORD PTR [rsp+0x1d8]
  403c1c:	8b 9c 24 d0 01 00 00 	mov    ebx,DWORD PTR [rsp+0x1d0]
  403c23:	4d 8d 14 92          	lea    r10,[r10+rdx*4]
  403c27:	44 89 bc 24 70 01 00 	mov    DWORD PTR [rsp+0x170],r15d
  403c2e:	00 
  403c2f:	4d 8d 0c 91          	lea    r9,[r9+rdx*4]
  403c33:	44 8b bc 24 a8 01 00 	mov    r15d,DWORD PTR [rsp+0x1a8]
  403c3a:	00 
  403c3b:	03 fa                	add    edi,edx
  403c3d:	41 d1 e8             	shr    r8d,1
  403c40:	03 da                	add    ebx,edx
  403c42:	89 9c 24 78 01 00 00 	mov    DWORD PTR [rsp+0x178],ebx
  403c49:	44 89 84 24 b0 01 00 	mov    DWORD PTR [rsp+0x1b0],r8d
  403c50:	00 
  403c51:	44 03 fa             	add    r15d,edx
  403c54:	44 89 bc 24 68 01 00 	mov    DWORD PTR [rsp+0x168],r15d
  403c5b:	00 
  403c5c:	89 bc 24 18 02 00 00 	mov    DWORD PTR [rsp+0x218],edi
  403c63:	4c 89 8c 24 80 01 00 	mov    QWORD PTR [rsp+0x180],r9
  403c6a:	00 
  403c6b:	4c 89 94 24 88 01 00 	mov    QWORD PTR [rsp+0x188],r10
  403c72:	00 
  403c73:	44 89 9c 24 90 02 00 	mov    DWORD PTR [rsp+0x290],r11d
  403c7a:	00 
  403c7b:	89 b4 24 90 01 00 00 	mov    DWORD PTR [rsp+0x190],esi
  403c82:	89 94 24 98 01 00 00 	mov    DWORD PTR [rsp+0x198],edx
  403c89:	89 8c 24 a0 01 00 00 	mov    DWORD PTR [rsp+0x1a0],ecx
  403c90:	8b 94 24 a0 02 00 00 	mov    edx,DWORD PTR [rsp+0x2a0]
  403c97:	42 8d 1c 22          	lea    ebx,[rdx+r12*1]
  403c9b:	83 fb 10             	cmp    ebx,0x10
  403c9e:	0f 4d d8             	cmovge ebx,eax
  403ca1:	83 fb 10             	cmp    ebx,0x10
  403ca4:	0f 84 b9 08 00 00    	je     404563 <square_sgemm+0x1233>
  403caa:	41 83 fd 10          	cmp    r13d,0x10
  403cae:	0f 84 c7 04 00 00    	je     40417b <square_sgemm+0xe4b>
  403cb4:	48 8b bc 24 70 02 00 	mov    rdi,QWORD PTR [rsp+0x270]
  403cbb:	00 
  403cbc:	33 d2                	xor    edx,edx
  403cbe:	49 89 ff             	mov    r15,rdi
  403cc1:	45 85 ed             	test   r13d,r13d
  403cc4:	0f 8e 60 01 00 00    	jle    403e2a <square_sgemm+0xafa>
  403cca:	8b 8c 24 18 02 00 00 	mov    ecx,DWORD PTR [rsp+0x218]
  403cd1:	41 89 d8             	mov    r8d,ebx
  403cd4:	4c 8b 8c 24 28 02 00 	mov    r9,QWORD PTR [rsp+0x228]
  403cdb:	00 
  403cdc:	41 83 e0 f8          	and    r8d,0xfffffff8
  403ce0:	44 89 a4 24 30 02 00 	mov    DWORD PTR [rsp+0x230],r12d
  403ce7:	00 
  403ce8:	89 d8                	mov    eax,ebx
  403cea:	4c 89 bc 24 40 02 00 	mov    QWORD PTR [rsp+0x240],r15
  403cf1:	00 
  403cf2:	42 8d 34 31          	lea    esi,[rcx+r14*1]
  403cf6:	48 63 f6             	movsxd rsi,esi
  403cf9:	49 89 ff             	mov    r15,rdi
  403cfc:	49 63 c8             	movsxd rcx,r8d
  403cff:	44 89 b4 24 38 02 00 	mov    DWORD PTR [rsp+0x238],r14d
  403d06:	00 
  403d07:	41 89 d6             	mov    r14d,edx
  403d0a:	c5 fe 6f 05 4e 31 01 	vmovdqu ymm0,YMMWORD PTR [rip+0x1314e]        # 416e60 <test_sizes.659.0.0.7+0x260>
  403d11:	00 
  403d12:	4c 8b a4 24 20 02 00 	mov    r12,QWORD PTR [rsp+0x220]
  403d19:	00 
  403d1a:	49 8d 34 b1          	lea    rsi,[r9+rsi*4]
  403d1e:	4c 63 cb             	movsxd r9,ebx
  403d21:	48 89 f3             	mov    rbx,rsi
  403d24:	49 c1 e1 02          	shl    r9,0x2
  403d28:	4c 89 8c 24 f0 02 00 	mov    QWORD PTR [rsp+0x2f0],r9
  403d2f:	00 
  403d30:	85 c0                	test   eax,eax
  403d32:	0f 8e bf 00 00 00    	jle    403df7 <square_sgemm+0xac7>
  403d38:	83 f8 18             	cmp    eax,0x18
  403d3b:	7e 6a                	jle    403da7 <square_sgemm+0xa77>
  403d3d:	48 89 8c 24 d8 02 00 	mov    QWORD PTR [rsp+0x2d8],rcx
  403d44:	00 
  403d45:	44 89 84 24 e0 02 00 	mov    DWORD PTR [rsp+0x2e0],r8d
  403d4c:	00 
  403d4d:	89 84 24 d0 02 00 00 	mov    DWORD PTR [rsp+0x2d0],eax
  403d54:	4c 89 ff             	mov    rdi,r15
  403d57:	48 89 de             	mov    rsi,rbx
  403d5a:	48 8b 94 24 f0 02 00 	mov    rdx,QWORD PTR [rsp+0x2f0]
  403d61:	00 
  403d62:	c5 f8 77             	vzeroupper 
  403d65:	e8 26 eb 00 00       	call   412890 <__intel_avx_rep_memcpy>
  403d6a:	41 ff c6             	inc    r14d
  403d6d:	49 83 c7 40          	add    r15,0x40
  403d71:	4a 8d 1c a3          	lea    rbx,[rbx+r12*4]
  403d75:	45 3b f5             	cmp    r14d,r13d
  403d78:	0f 83 d4 03 00 00    	jae    404152 <square_sgemm+0xe22>
  403d7e:	83 bc 24 d0 02 00 00 	cmp    DWORD PTR [rsp+0x2d0],0x18
  403d85:	18 
  403d86:	7f cc                	jg     403d54 <square_sgemm+0xa24>
  403d88:	c5 fe 6f 05 d0 30 01 	vmovdqu ymm0,YMMWORD PTR [rip+0x130d0]        # 416e60 <test_sizes.659.0.0.7+0x260>
  403d8f:	00 
  403d90:	48 8b 8c 24 d8 02 00 	mov    rcx,QWORD PTR [rsp+0x2d8]
  403d97:	00 
  403d98:	44 8b 84 24 e0 02 00 	mov    r8d,DWORD PTR [rsp+0x2e0]
  403d9f:	00 
  403da0:	8b 84 24 d0 02 00 00 	mov    eax,DWORD PTR [rsp+0x2d0]
  403da7:	83 f8 08             	cmp    eax,0x8
  403daa:	0f 8c 9a 03 00 00    	jl     40414a <square_sgemm+0xe1a>
  403db0:	45 89 c1             	mov    r9d,r8d
  403db3:	45 33 d2             	xor    r10d,r10d
  403db6:	c4 a1 7c 10 0c 93    	vmovups ymm1,YMMWORD PTR [rbx+r10*4]
  403dbc:	c4 81 7c 11 0c 97    	vmovups YMMWORD PTR [r15+r10*4],ymm1
  403dc2:	49 83 c2 08          	add    r10,0x8
  403dc6:	4c 3b d1             	cmp    r10,rcx
  403dc9:	72 eb                	jb     403db6 <square_sgemm+0xa86>
  403dcb:	45 8d 51 01          	lea    r10d,[r9+0x1]
  403dcf:	44 3b d0             	cmp    r10d,eax
  403dd2:	77 23                	ja     403df7 <square_sgemm+0xac7>
  403dd4:	41 89 c2             	mov    r10d,eax
  403dd7:	45 2b d1             	sub    r10d,r9d
  403dda:	62 d2 7d 28 7c ca    	vpbroadcastd ymm1,r10d
  403de0:	62 f1 75 28 66 c8    	vpcmpgtd k1,ymm1,ymm0
  403de6:	4d 63 c9             	movsxd r9,r9d
  403de9:	62 b1 7c a9 10 14 8b 	vmovups ymm2{k1}{z},YMMWORD PTR [rbx+r9*4]
  403df0:	62 91 7c 29 11 14 8f 	vmovups YMMWORD PTR [r15+r9*4]{k1},ymm2
  403df7:	41 ff c6             	inc    r14d
  403dfa:	49 83 c7 40          	add    r15,0x40
  403dfe:	4a 8d 1c a3          	lea    rbx,[rbx+r12*4]
  403e02:	45 3b f5             	cmp    r14d,r13d
  403e05:	0f 82 25 ff ff ff    	jb     403d30 <square_sgemm+0xa00>
  403e0b:	4c 8b bc 24 40 02 00 	mov    r15,QWORD PTR [rsp+0x240]
  403e12:	00 
  403e13:	89 c3                	mov    ebx,eax
  403e15:	44 8b a4 24 30 02 00 	mov    r12d,DWORD PTR [rsp+0x230]
  403e1c:	00 
  403e1d:	b8 10 00 00 00       	mov    eax,0x10
  403e22:	44 8b b4 24 38 02 00 	mov    r14d,DWORD PTR [rsp+0x238]
  403e29:	00 
  403e2a:	48 83 c4 f0          	add    rsp,0xfffffffffffffff0
  403e2e:	bf 10 00 00 00       	mov    edi,0x10
  403e33:	4c 8b 94 24 80 02 00 	mov    r10,QWORD PTR [rsp+0x280]
  403e3a:	00 
  403e3b:	89 fa                	mov    edx,edi
  403e3d:	c5 f8 77             	vzeroupper 
  403e40:	4c 89 14 24          	mov    QWORD PTR [rsp],r10
  403e44:	8b b4 24 b8 02 00 00 	mov    esi,DWORD PTR [rsp+0x2b8]
  403e4b:	89 f1                	mov    ecx,esi
  403e4d:	4c 8b 84 24 78 02 00 	mov    r8,QWORD PTR [rsp+0x278]
  403e54:	00 
  403e55:	4c 8b 8c 24 70 02 00 	mov    r9,QWORD PTR [rsp+0x270]
  403e5c:	00 
  403e5d:	e8 7e 0a 00 00       	call   4048e0 <do_block_avx_16k16>
  403e62:	b8 10 00 00 00       	mov    eax,0x10
  403e67:	48 83 c4 10          	add    rsp,0x10
  403e6b:	33 d2                	xor    edx,edx
  403e6d:	45 85 ed             	test   r13d,r13d
  403e70:	0f 8e 4b 01 00 00    	jle    403fc1 <square_sgemm+0xc91>
  403e76:	8b 8c 24 18 02 00 00 	mov    ecx,DWORD PTR [rsp+0x218]
  403e7d:	41 89 d8             	mov    r8d,ebx
  403e80:	48 8b bc 24 28 02 00 	mov    rdi,QWORD PTR [rsp+0x228]
  403e87:	00 
  403e88:	41 83 e0 f8          	and    r8d,0xfffffff8
  403e8c:	44 89 a4 24 30 02 00 	mov    DWORD PTR [rsp+0x230],r12d
  403e93:	00 
  403e94:	89 d8                	mov    eax,ebx
  403e96:	44 89 b4 24 38 02 00 	mov    DWORD PTR [rsp+0x238],r14d
  403e9d:	00 
  403e9e:	42 8d 34 31          	lea    esi,[rcx+r14*1]
  403ea2:	48 63 f6             	movsxd rsi,esi
  403ea5:	41 89 d6             	mov    r14d,edx
  403ea8:	49 63 c8             	movsxd rcx,r8d
  403eab:	c5 fe 6f 05 ad 2f 01 	vmovdqu ymm0,YMMWORD PTR [rip+0x12fad]        # 416e60 <test_sizes.659.0.0.7+0x260>
  403eb2:	00 
  403eb3:	4c 8b a4 24 20 02 00 	mov    r12,QWORD PTR [rsp+0x220]
  403eba:	00 
  403ebb:	48 8d 3c b7          	lea    rdi,[rdi+rsi*4]
  403ebf:	48 63 f3             	movsxd rsi,ebx
  403ec2:	48 89 fb             	mov    rbx,rdi
  403ec5:	48 c1 e6 02          	shl    rsi,0x2
  403ec9:	48 89 b4 24 e8 02 00 	mov    QWORD PTR [rsp+0x2e8],rsi
  403ed0:	00 
  403ed1:	85 c0                	test   eax,eax
  403ed3:	0f 8e bf 00 00 00    	jle    403f98 <square_sgemm+0xc68>
  403ed9:	83 f8 18             	cmp    eax,0x18
  403edc:	7e 6a                	jle    403f48 <square_sgemm+0xc18>
  403ede:	48 89 8c 24 c0 02 00 	mov    QWORD PTR [rsp+0x2c0],rcx
  403ee5:	00 
  403ee6:	44 89 84 24 c8 02 00 	mov    DWORD PTR [rsp+0x2c8],r8d
  403eed:	00 
  403eee:	89 84 24 d0 02 00 00 	mov    DWORD PTR [rsp+0x2d0],eax
  403ef5:	48 89 df             	mov    rdi,rbx
  403ef8:	4c 89 fe             	mov    rsi,r15
  403efb:	48 8b 94 24 e8 02 00 	mov    rdx,QWORD PTR [rsp+0x2e8]
  403f02:	00 
  403f03:	c5 f8 77             	vzeroupper 
  403f06:	e8 85 e9 00 00       	call   412890 <__intel_avx_rep_memcpy>
  403f0b:	41 ff c6             	inc    r14d
  403f0e:	49 83 c7 40          	add    r15,0x40
  403f12:	4a 8d 1c a3          	lea    rbx,[rbx+r12*4]
  403f16:	45 3b f5             	cmp    r14d,r13d
  403f19:	0f 83 8d 00 00 00    	jae    403fac <square_sgemm+0xc7c>
  403f1f:	83 bc 24 d0 02 00 00 	cmp    DWORD PTR [rsp+0x2d0],0x18
  403f26:	18 
  403f27:	7f cc                	jg     403ef5 <square_sgemm+0xbc5>
  403f29:	c5 fe 6f 05 2f 2f 01 	vmovdqu ymm0,YMMWORD PTR [rip+0x12f2f]        # 416e60 <test_sizes.659.0.0.7+0x260>
  403f30:	00 
  403f31:	48 8b 8c 24 c0 02 00 	mov    rcx,QWORD PTR [rsp+0x2c0]
  403f38:	00 
  403f39:	44 8b 84 24 c8 02 00 	mov    r8d,DWORD PTR [rsp+0x2c8]
  403f40:	00 
  403f41:	8b 84 24 d0 02 00 00 	mov    eax,DWORD PTR [rsp+0x2d0]
  403f48:	83 f8 08             	cmp    eax,0x8
  403f4b:	0f 8c f1 01 00 00    	jl     404142 <square_sgemm+0xe12>
  403f51:	45 89 c1             	mov    r9d,r8d
  403f54:	45 33 d2             	xor    r10d,r10d
  403f57:	c4 81 7c 10 0c 97    	vmovups ymm1,YMMWORD PTR [r15+r10*4]
  403f5d:	c4 a1 7c 11 0c 93    	vmovups YMMWORD PTR [rbx+r10*4],ymm1
  403f63:	49 83 c2 08          	add    r10,0x8
  403f67:	4c 3b d1             	cmp    r10,rcx
  403f6a:	72 eb                	jb     403f57 <square_sgemm+0xc27>
  403f6c:	45 8d 51 01          	lea    r10d,[r9+0x1]
  403f70:	44 3b d0             	cmp    r10d,eax
  403f73:	77 23                	ja     403f98 <square_sgemm+0xc68>
  403f75:	41 89 c2             	mov    r10d,eax
  403f78:	45 2b d1             	sub    r10d,r9d
  403f7b:	62 d2 7d 28 7c ca    	vpbroadcastd ymm1,r10d
  403f81:	62 f1 75 28 66 c8    	vpcmpgtd k1,ymm1,ymm0
  403f87:	4d 63 c9             	movsxd r9,r9d
  403f8a:	62 91 7c a9 10 14 8f 	vmovups ymm2{k1}{z},YMMWORD PTR [r15+r9*4]
  403f91:	62 b1 7c 29 11 14 8b 	vmovups YMMWORD PTR [rbx+r9*4]{k1},ymm2
  403f98:	41 ff c6             	inc    r14d
  403f9b:	49 83 c7 40          	add    r15,0x40
  403f9f:	4a 8d 1c a3          	lea    rbx,[rbx+r12*4]
  403fa3:	45 3b f5             	cmp    r14d,r13d
  403fa6:	0f 82 25 ff ff ff    	jb     403ed1 <square_sgemm+0xba1>
  403fac:	44 8b a4 24 30 02 00 	mov    r12d,DWORD PTR [rsp+0x230]
  403fb3:	00 
  403fb4:	b8 10 00 00 00       	mov    eax,0x10
  403fb9:	44 8b b4 24 38 02 00 	mov    r14d,DWORD PTR [rsp+0x238]
  403fc0:	00 
  403fc1:	8b 94 24 90 02 00 00 	mov    edx,DWORD PTR [rsp+0x290]
  403fc8:	41 83 c4 f0          	add    r12d,0xfffffff0
  403fcc:	ff c2                	inc    edx
  403fce:	41 83 c6 10          	add    r14d,0x10
  403fd2:	89 94 24 90 02 00 00 	mov    DWORD PTR [rsp+0x290],edx
  403fd9:	3b 94 24 98 02 00 00 	cmp    edx,DWORD PTR [rsp+0x298]
  403fe0:	0f 82 aa fc ff ff    	jb     403c90 <square_sgemm+0x960>
  403fe6:	8b b4 24 90 01 00 00 	mov    esi,DWORD PTR [rsp+0x190]
  403fed:	8b 94 24 98 01 00 00 	mov    edx,DWORD PTR [rsp+0x198]
  403ff4:	8b 8c 24 a0 01 00 00 	mov    ecx,DWORD PTR [rsp+0x1a0]
  403ffb:	ff c1                	inc    ecx
  403ffd:	83 c6 f0             	add    esi,0xfffffff0
  404000:	03 94 24 e8 01 00 00 	add    edx,DWORD PTR [rsp+0x1e8]
  404007:	3b 8c 24 e0 01 00 00 	cmp    ecx,DWORD PTR [rsp+0x1e0]
  40400e:	0f 82 bf fb ff ff    	jb     403bd3 <square_sgemm+0x8a3>
  404014:	44 8b ac 24 e8 00 00 	mov    r13d,DWORD PTR [rsp+0xe8]
  40401b:	00 
  40401c:	44 8b b4 24 f0 00 00 	mov    r14d,DWORD PTR [rsp+0xf0]
  404023:	00 
  404024:	c5 f8 77             	vzeroupper 
  404027:	48 8b bc 24 68 02 00 	mov    rdi,QWORD PTR [rsp+0x268]
  40402e:	00 
  40402f:	e8 0c cb 00 00       	call   410b40 <_mm_free>
  404034:	48 8b bc 24 60 02 00 	mov    rdi,QWORD PTR [rsp+0x260]
  40403b:	00 
  40403c:	e8 ff ca 00 00       	call   410b40 <_mm_free>
  404041:	48 8b bc 24 70 02 00 	mov    rdi,QWORD PTR [rsp+0x270]
  404048:	00 
  404049:	e8 f2 ca 00 00       	call   410b40 <_mm_free>
  40404e:	48 8b 84 24 20 01 00 	mov    rax,QWORD PTR [rsp+0x120]
  404055:	00 
  404056:	41 81 c5 40 ff ff ff 	add    r13d,0xffffff40
  40405d:	8b 94 24 18 01 00 00 	mov    edx,DWORD PTR [rsp+0x118]
  404064:	41 81 c6 c0 00 00 00 	add    r14d,0xc0
  40406b:	ff c2                	inc    edx
  40406d:	89 94 24 18 01 00 00 	mov    DWORD PTR [rsp+0x118],edx
  404074:	4c 8d 3c 40          	lea    r15,[rax+rax*2]
  404078:	49 c1 e7 06          	shl    r15,0x6
  40407c:	48 ff c0             	inc    rax
  40407f:	49 81 c7 c0 00 00 00 	add    r15,0xc0
  404086:	48 89 84 24 20 01 00 	mov    QWORD PTR [rsp+0x120],rax
  40408d:	00 
  40408e:	3b 94 24 38 01 00 00 	cmp    edx,DWORD PTR [rsp+0x138]
  404095:	0f 82 f6 f5 ff ff    	jb     403691 <square_sgemm+0x361>
  40409b:	48 8b 94 24 80 00 00 	mov    rdx,QWORD PTR [rsp+0x80]
  4040a2:	00 
  4040a3:	44 8b 8c 24 a0 00 00 	mov    r9d,DWORD PTR [rsp+0xa0]
  4040aa:	00 
  4040ab:	48 8b bc 24 88 00 00 	mov    rdi,QWORD PTR [rsp+0x88]
  4040b2:	00 
  4040b3:	41 ff c1             	inc    r9d
  4040b6:	8b 84 24 90 00 00 00 	mov    eax,DWORD PTR [rsp+0x90]
  4040bd:	4c 8d 87 80 00 00 00 	lea    r8,[rdi+0x80]
  4040c4:	44 8b 94 24 98 00 00 	mov    r10d,DWORD PTR [rsp+0x98]
  4040cb:	00 
  4040cc:	83 c0 80             	add    eax,0xffffff80
  4040cf:	48 03 94 24 a8 00 00 	add    rdx,QWORD PTR [rsp+0xa8]
  4040d6:	00 
  4040d7:	41 81 c2 80 00 00 00 	add    r10d,0x80
  4040de:	4c 89 c7             	mov    rdi,r8
  4040e1:	44 3b 8c 24 b0 00 00 	cmp    r9d,DWORD PTR [rsp+0xb0]
  4040e8:	00 
  4040e9:	0f 82 89 f4 ff ff    	jb     403578 <square_sgemm+0x248>
  4040ef:	44 8b 6c 24 30       	mov    r13d,DWORD PTR [rsp+0x30]
  4040f4:	8b 44 24 48          	mov    eax,DWORD PTR [rsp+0x48]
  4040f8:	ff c0                	inc    eax
  4040fa:	48 8b 54 24 38       	mov    rdx,QWORD PTR [rsp+0x38]
  4040ff:	8b 4c 24 40          	mov    ecx,DWORD PTR [rsp+0x40]
  404103:	48 81 c2 80 00 00 00 	add    rdx,0x80
  40410a:	44 03 6c 24 50       	add    r13d,DWORD PTR [rsp+0x50]
  40410f:	83 c1 80             	add    ecx,0xffffff80
  404112:	3b 84 24 b0 00 00 00 	cmp    eax,DWORD PTR [rsp+0xb0]
  404119:	0f 82 57 f3 ff ff    	jb     403476 <square_sgemm+0x146>
  40411f:	4c 8b 24 24          	mov    r12,QWORD PTR [rsp]
  404123:	4c 8b 6c 24 08       	mov    r13,QWORD PTR [rsp+0x8]
  404128:	4c 8b 74 24 10       	mov    r14,QWORD PTR [rsp+0x10]
  40412d:	4c 8b 7c 24 18       	mov    r15,QWORD PTR [rsp+0x18]
  404132:	c5 f8 77             	vzeroupper 
  404135:	48 81 c4 38 03 00 00 	add    rsp,0x338
  40413c:	5b                   	pop    rbx
  40413d:	48 89 ec             	mov    rsp,rbp
  404140:	5d                   	pop    rbp
  404141:	c3                   	ret    
  404142:	45 33 c9             	xor    r9d,r9d
  404145:	e9 22 fe ff ff       	jmp    403f6c <square_sgemm+0xc3c>
  40414a:	45 33 c9             	xor    r9d,r9d
  40414d:	e9 79 fc ff ff       	jmp    403dcb <square_sgemm+0xa9b>
  404152:	4c 8b bc 24 40 02 00 	mov    r15,QWORD PTR [rsp+0x240]
  404159:	00 
  40415a:	b8 10 00 00 00       	mov    eax,0x10
  40415f:	8b 9c 24 d0 02 00 00 	mov    ebx,DWORD PTR [rsp+0x2d0]
  404166:	44 8b a4 24 30 02 00 	mov    r12d,DWORD PTR [rsp+0x230]
  40416d:	00 
  40416e:	44 8b b4 24 38 02 00 	mov    r14d,DWORD PTR [rsp+0x238]
  404175:	00 
  404176:	e9 af fc ff ff       	jmp    403e2a <square_sgemm+0xafa>
  40417b:	8b 94 24 18 02 00 00 	mov    edx,DWORD PTR [rsp+0x218]
  404182:	89 df                	mov    edi,ebx
  404184:	83 e7 f8             	and    edi,0xfffffff8
  404187:	33 c9                	xor    ecx,ecx
  404189:	89 bc 24 58 01 00 00 	mov    DWORD PTR [rsp+0x158],edi
  404190:	89 d8                	mov    eax,ebx
  404192:	48 63 ff             	movsxd rdi,edi
  404195:	42 8d 34 32          	lea    esi,[rdx+r14*1]
  404199:	4c 63 c3             	movsxd r8,ebx
  40419c:	33 d2                	xor    edx,edx
  40419e:	89 b4 24 80 02 00 00 	mov    DWORD PTR [rsp+0x280],esi
  4041a5:	48 89 cb             	mov    rbx,rcx
  4041a8:	48 89 bc 24 50 01 00 	mov    QWORD PTR [rsp+0x150],rdi
  4041af:	00 
  4041b0:	4c 8b bc 24 70 02 00 	mov    r15,QWORD PTR [rsp+0x270]
  4041b7:	00 
  4041b8:	49 c1 e0 02          	shl    r8,0x2
  4041bc:	44 89 a4 24 30 02 00 	mov    DWORD PTR [rsp+0x230],r12d
  4041c3:	00 
  4041c4:	4c 89 84 24 78 02 00 	mov    QWORD PTR [rsp+0x278],r8
  4041cb:	00 
  4041cc:	4c 89 bc 24 48 01 00 	mov    QWORD PTR [rsp+0x148],r15
  4041d3:	00 
  4041d4:	44 89 b4 24 38 02 00 	mov    DWORD PTR [rsp+0x238],r14d
  4041db:	00 
  4041dc:	4d 89 fe             	mov    r14,r15
  4041df:	44 89 ac 24 60 01 00 	mov    DWORD PTR [rsp+0x160],r13d
  4041e6:	00 
  4041e7:	49 89 d5             	mov    r13,rdx
  4041ea:	c5 fe 6f 05 6e 2c 01 	vmovdqu ymm0,YMMWORD PTR [rip+0x12c6e]        # 416e60 <test_sizes.659.0.0.7+0x260>
  4041f1:	00 
  4041f2:	8b 8c 24 58 01 00 00 	mov    ecx,DWORD PTR [rsp+0x158]
  4041f9:	4c 8b a4 24 28 02 00 	mov    r12,QWORD PTR [rsp+0x228]
  404200:	00 
  404201:	8b 94 24 88 02 00 00 	mov    edx,DWORD PTR [rsp+0x288]
  404208:	85 c0                	test   eax,eax
  40420a:	0f 8e f9 00 00 00    	jle    404309 <square_sgemm+0xfd9>
  404210:	83 f8 18             	cmp    eax,0x18
  404213:	7e 7e                	jle    404293 <square_sgemm+0xf63>
  404215:	89 84 24 d0 02 00 00 	mov    DWORD PTR [rsp+0x2d0],eax
  40421c:	89 d8                	mov    eax,ebx
  40421e:	4b 8d 3c 2e          	lea    rdi,[r14+r13*1]
  404222:	0f af 84 24 88 02 00 	imul   eax,DWORD PTR [rsp+0x288]
  404229:	00 
  40422a:	03 84 24 80 02 00 00 	add    eax,DWORD PTR [rsp+0x280]
  404231:	48 63 c0             	movsxd rax,eax
  404234:	48 8b 94 24 78 02 00 	mov    rdx,QWORD PTR [rsp+0x278]
  40423b:	00 
  40423c:	c5 f8 77             	vzeroupper 
  40423f:	49 8d 34 84          	lea    rsi,[r12+rax*4]
  404243:	e8 48 e6 00 00       	call   412890 <__intel_avx_rep_memcpy>
  404248:	48 ff c3             	inc    rbx
  40424b:	49 83 c7 40          	add    r15,0x40
  40424f:	49 83 c5 40          	add    r13,0x40
  404253:	48 83 fb 10          	cmp    rbx,0x10
  404257:	0f 83 d5 02 00 00    	jae    404532 <square_sgemm+0x1202>
  40425d:	83 bc 24 d0 02 00 00 	cmp    DWORD PTR [rsp+0x2d0],0x18
  404264:	18 
  404265:	7f b5                	jg     40421c <square_sgemm+0xeec>
  404267:	c5 fe 6f 05 f1 2b 01 	vmovdqu ymm0,YMMWORD PTR [rip+0x12bf1]        # 416e60 <test_sizes.659.0.0.7+0x260>
  40426e:	00 
  40426f:	48 8b bc 24 50 01 00 	mov    rdi,QWORD PTR [rsp+0x150]
  404276:	00 
  404277:	8b b4 24 80 02 00 00 	mov    esi,DWORD PTR [rsp+0x280]
  40427e:	8b 8c 24 58 01 00 00 	mov    ecx,DWORD PTR [rsp+0x158]
  404285:	8b 84 24 d0 02 00 00 	mov    eax,DWORD PTR [rsp+0x2d0]
  40428c:	8b 94 24 88 02 00 00 	mov    edx,DWORD PTR [rsp+0x288]
  404293:	83 f8 08             	cmp    eax,0x8
  404296:	0f 8c 8e 02 00 00    	jl     40452a <square_sgemm+0x11fa>
  40429c:	41 89 da             	mov    r10d,ebx
  40429f:	41 89 c9             	mov    r9d,ecx
  4042a2:	44 0f af d2          	imul   r10d,edx
  4042a6:	45 33 c0             	xor    r8d,r8d
  4042a9:	44 03 d6             	add    r10d,esi
  4042ac:	4d 63 d2             	movsxd r10,r10d
  4042af:	4f 8d 14 94          	lea    r10,[r12+r10*4]
  4042b3:	c4 81 7c 10 0c 82    	vmovups ymm1,YMMWORD PTR [r10+r8*4]
  4042b9:	c4 81 7c 11 0c 87    	vmovups YMMWORD PTR [r15+r8*4],ymm1
  4042bf:	49 83 c0 08          	add    r8,0x8
  4042c3:	4c 3b c7             	cmp    r8,rdi
  4042c6:	72 eb                	jb     4042b3 <square_sgemm+0xf83>
  4042c8:	45 8d 41 01          	lea    r8d,[r9+0x1]
  4042cc:	44 3b c0             	cmp    r8d,eax
  4042cf:	77 38                	ja     404309 <square_sgemm+0xfd9>
  4042d1:	41 89 c0             	mov    r8d,eax
  4042d4:	41 89 da             	mov    r10d,ebx
  4042d7:	45 2b c1             	sub    r8d,r9d
  4042da:	44 0f af d2          	imul   r10d,edx
  4042de:	62 d2 7d 28 7c c8    	vpbroadcastd ymm1,r8d
  4042e4:	62 f1 75 28 66 c8    	vpcmpgtd k1,ymm1,ymm0
  4042ea:	44 03 d6             	add    r10d,esi
  4042ed:	4d 63 d2             	movsxd r10,r10d
  4042f0:	4d 63 c9             	movsxd r9,r9d
  4042f3:	4f 8d 1c 94          	lea    r11,[r12+r10*4]
  4042f7:	62 91 7c a9 10 14 8b 	vmovups ymm2{k1}{z},YMMWORD PTR [r11+r9*4]
  4042fe:	4f 8d 04 8e          	lea    r8,[r14+r9*4]
  404302:	62 91 7c 29 11 14 28 	vmovups YMMWORD PTR [r8+r13*1]{k1},ymm2
  404309:	48 ff c3             	inc    rbx
  40430c:	49 83 c7 40          	add    r15,0x40
  404310:	49 83 c5 40          	add    r13,0x40
  404314:	48 83 fb 10          	cmp    rbx,0x10
  404318:	0f 82 ea fe ff ff    	jb     404208 <square_sgemm+0xed8>
  40431e:	4c 89 a4 24 28 02 00 	mov    QWORD PTR [rsp+0x228],r12
  404325:	00 
  404326:	89 c3                	mov    ebx,eax
  404328:	44 8b a4 24 30 02 00 	mov    r12d,DWORD PTR [rsp+0x230]
  40432f:	00 
  404330:	b8 10 00 00 00       	mov    eax,0x10
  404335:	44 8b b4 24 38 02 00 	mov    r14d,DWORD PTR [rsp+0x238]
  40433c:	00 
  40433d:	44 8b ac 24 60 01 00 	mov    r13d,DWORD PTR [rsp+0x160]
  404344:	00 
  404345:	48 83 c4 f0          	add    rsp,0xfffffffffffffff0
  404349:	bf 10 00 00 00       	mov    edi,0x10
  40434e:	4c 8b 94 24 80 02 00 	mov    r10,QWORD PTR [rsp+0x280]
  404355:	00 
  404356:	89 fa                	mov    edx,edi
  404358:	c5 f8 77             	vzeroupper 
  40435b:	4c 89 14 24          	mov    QWORD PTR [rsp],r10
  40435f:	8b b4 24 98 02 00 00 	mov    esi,DWORD PTR [rsp+0x298]
  404366:	8b 8c 24 b8 02 00 00 	mov    ecx,DWORD PTR [rsp+0x2b8]
  40436d:	4c 8b 84 24 78 02 00 	mov    r8,QWORD PTR [rsp+0x278]
  404374:	00 
  404375:	4c 8b 8c 24 90 01 00 	mov    r9,QWORD PTR [rsp+0x190]
  40437c:	00 
  40437d:	e8 5e 05 00 00       	call   4048e0 <do_block_avx_16k16>
  404382:	b8 10 00 00 00       	mov    eax,0x10
  404387:	48 83 c4 10          	add    rsp,0x10
  40438b:	33 d2                	xor    edx,edx
  40438d:	89 d8                	mov    eax,ebx
  40438f:	44 89 a4 24 30 02 00 	mov    DWORD PTR [rsp+0x230],r12d
  404396:	00 
  404397:	45 33 ff             	xor    r15d,r15d
  40439a:	44 89 b4 24 38 02 00 	mov    DWORD PTR [rsp+0x238],r14d
  4043a1:	00 
  4043a2:	48 89 d3             	mov    rbx,rdx
  4043a5:	44 89 ac 24 60 01 00 	mov    DWORD PTR [rsp+0x160],r13d
  4043ac:	00 
  4043ad:	c5 fe 6f 05 ab 2a 01 	vmovdqu ymm0,YMMWORD PTR [rip+0x12aab]        # 416e60 <test_sizes.659.0.0.7+0x260>
  4043b4:	00 
  4043b5:	4c 8b ac 24 48 01 00 	mov    r13,QWORD PTR [rsp+0x148]
  4043bc:	00 
  4043bd:	4c 8b 8c 24 50 01 00 	mov    r9,QWORD PTR [rsp+0x150]
  4043c4:	00 
  4043c5:	44 8b 94 24 80 02 00 	mov    r10d,DWORD PTR [rsp+0x280]
  4043cc:	00 
  4043cd:	44 8b 84 24 58 01 00 	mov    r8d,DWORD PTR [rsp+0x158]
  4043d4:	00 
  4043d5:	4c 8b b4 24 28 02 00 	mov    r14,QWORD PTR [rsp+0x228]
  4043dc:	00 
  4043dd:	48 8b bc 24 70 02 00 	mov    rdi,QWORD PTR [rsp+0x270]
  4043e4:	00 
  4043e5:	44 8b a4 24 88 02 00 	mov    r12d,DWORD PTR [rsp+0x288]
  4043ec:	00 
  4043ed:	85 c0                	test   eax,eax
  4043ef:	0f 8e f2 00 00 00    	jle    4044e7 <square_sgemm+0x11b7>
  4043f5:	83 f8 18             	cmp    eax,0x18
  4043f8:	7e 7c                	jle    404476 <square_sgemm+0x1146>
  4043fa:	89 84 24 d0 02 00 00 	mov    DWORD PTR [rsp+0x2d0],eax
  404401:	89 d8                	mov    eax,ebx
  404403:	4c 89 ee             	mov    rsi,r13
  404406:	41 0f af c4          	imul   eax,r12d
  40440a:	03 84 24 80 02 00 00 	add    eax,DWORD PTR [rsp+0x280]
  404411:	48 63 c0             	movsxd rax,eax
  404414:	48 8b 94 24 78 02 00 	mov    rdx,QWORD PTR [rsp+0x278]
  40441b:	00 
  40441c:	c5 f8 77             	vzeroupper 
  40441f:	49 8d 3c 86          	lea    rdi,[r14+rax*4]
  404423:	e8 68 e4 00 00       	call   412890 <__intel_avx_rep_memcpy>
  404428:	48 ff c3             	inc    rbx
  40442b:	49 83 c5 40          	add    r13,0x40
  40442f:	49 83 c7 40          	add    r15,0x40
  404433:	48 83 fb 10          	cmp    rbx,0x10
  404437:	0f 83 bf 00 00 00    	jae    4044fc <square_sgemm+0x11cc>
  40443d:	83 bc 24 d0 02 00 00 	cmp    DWORD PTR [rsp+0x2d0],0x18
  404444:	18 
  404445:	7f ba                	jg     404401 <square_sgemm+0x10d1>
  404447:	c5 fe 6f 05 11 2a 01 	vmovdqu ymm0,YMMWORD PTR [rip+0x12a11]        # 416e60 <test_sizes.659.0.0.7+0x260>
  40444e:	00 
  40444f:	4c 8b 8c 24 50 01 00 	mov    r9,QWORD PTR [rsp+0x150]
  404456:	00 
  404457:	44 8b 94 24 80 02 00 	mov    r10d,DWORD PTR [rsp+0x280]
  40445e:	00 
  40445f:	44 8b 84 24 58 01 00 	mov    r8d,DWORD PTR [rsp+0x158]
  404466:	00 
  404467:	8b 84 24 d0 02 00 00 	mov    eax,DWORD PTR [rsp+0x2d0]
  40446e:	48 8b bc 24 70 02 00 	mov    rdi,QWORD PTR [rsp+0x270]
  404475:	00 
  404476:	83 f8 08             	cmp    eax,0x8
  404479:	0f 8c a7 00 00 00    	jl     404526 <square_sgemm+0x11f6>
  40447f:	41 89 db             	mov    r11d,ebx
  404482:	44 89 c2             	mov    edx,r8d
  404485:	45 0f af dc          	imul   r11d,r12d
  404489:	33 c9                	xor    ecx,ecx
  40448b:	45 03 da             	add    r11d,r10d
  40448e:	4d 63 db             	movsxd r11,r11d
  404491:	4f 8d 1c 9e          	lea    r11,[r14+r11*4]
  404495:	c4 c1 7c 10 4c 8d 00 	vmovups ymm1,YMMWORD PTR [r13+rcx*4+0x0]
  40449c:	c4 c1 7c 11 0c 8b    	vmovups YMMWORD PTR [r11+rcx*4],ymm1
  4044a2:	48 83 c1 08          	add    rcx,0x8
  4044a6:	49 3b c9             	cmp    rcx,r9
  4044a9:	72 ea                	jb     404495 <square_sgemm+0x1165>
  4044ab:	8d 4a 01             	lea    ecx,[rdx+0x1]
  4044ae:	3b c8                	cmp    ecx,eax
  4044b0:	77 35                	ja     4044e7 <square_sgemm+0x11b7>
  4044b2:	89 c1                	mov    ecx,eax
  4044b4:	2b ca                	sub    ecx,edx
  4044b6:	62 f2 7d 28 7c c9    	vpbroadcastd ymm1,ecx
  4044bc:	89 d9                	mov    ecx,ebx
  4044be:	41 0f af cc          	imul   ecx,r12d
  4044c2:	62 f1 75 28 66 c8    	vpcmpgtd k1,ymm1,ymm0
  4044c8:	48 63 d2             	movsxd rdx,edx
  4044cb:	41 03 ca             	add    ecx,r10d
  4044ce:	48 63 c9             	movsxd rcx,ecx
  4044d1:	4c 8d 1c 97          	lea    r11,[rdi+rdx*4]
  4044d5:	62 91 7c a9 10 14 3b 	vmovups ymm2{k1}{z},YMMWORD PTR [r11+r15*1]
  4044dc:	49 8d 0c 8e          	lea    rcx,[r14+rcx*4]
  4044e0:	62 f1 7c 29 11 14 91 	vmovups YMMWORD PTR [rcx+rdx*4]{k1},ymm2
  4044e7:	48 ff c3             	inc    rbx
  4044ea:	49 83 c5 40          	add    r13,0x40
  4044ee:	49 83 c7 40          	add    r15,0x40
  4044f2:	48 83 fb 10          	cmp    rbx,0x10
  4044f6:	0f 82 f1 fe ff ff    	jb     4043ed <square_sgemm+0x10bd>
  4044fc:	4c 89 b4 24 28 02 00 	mov    QWORD PTR [rsp+0x228],r14
  404503:	00 
  404504:	b8 10 00 00 00       	mov    eax,0x10
  404509:	44 8b a4 24 30 02 00 	mov    r12d,DWORD PTR [rsp+0x230]
  404510:	00 
  404511:	44 8b b4 24 38 02 00 	mov    r14d,DWORD PTR [rsp+0x238]
  404518:	00 
  404519:	44 8b ac 24 60 01 00 	mov    r13d,DWORD PTR [rsp+0x160]
  404520:	00 
  404521:	e9 9b fa ff ff       	jmp    403fc1 <square_sgemm+0xc91>
  404526:	33 d2                	xor    edx,edx
  404528:	eb 81                	jmp    4044ab <square_sgemm+0x117b>
  40452a:	45 33 c9             	xor    r9d,r9d
  40452d:	e9 96 fd ff ff       	jmp    4042c8 <square_sgemm+0xf98>
  404532:	4c 89 a4 24 28 02 00 	mov    QWORD PTR [rsp+0x228],r12
  404539:	00 
  40453a:	b8 10 00 00 00       	mov    eax,0x10
  40453f:	8b 9c 24 d0 02 00 00 	mov    ebx,DWORD PTR [rsp+0x2d0]
  404546:	44 8b a4 24 30 02 00 	mov    r12d,DWORD PTR [rsp+0x230]
  40454d:	00 
  40454e:	44 8b b4 24 38 02 00 	mov    r14d,DWORD PTR [rsp+0x238]
  404555:	00 
  404556:	44 8b ac 24 60 01 00 	mov    r13d,DWORD PTR [rsp+0x160]
  40455d:	00 
  40455e:	e9 e2 fd ff ff       	jmp    404345 <square_sgemm+0x1015>
  404563:	41 83 fd 10          	cmp    r13d,0x10
  404567:	0f 84 6c 02 00 00    	je     4047d9 <square_sgemm+0x14a9>
  40456d:	45 85 ed             	test   r13d,r13d
  404570:	0f 8e 0b 01 00 00    	jle    404681 <square_sgemm+0x1351>
  404576:	45 33 c0             	xor    r8d,r8d
  404579:	bf 01 00 00 00       	mov    edi,0x1
  40457e:	45 33 d2             	xor    r10d,r10d
  404581:	83 bc 24 b0 01 00 00 	cmp    DWORD PTR [rsp+0x1b0],0x0
  404588:	00 
  404589:	0f 84 a0 00 00 00    	je     40462f <square_sgemm+0x12ff>
  40458f:	44 8b 8c 24 70 01 00 	mov    r9d,DWORD PTR [rsp+0x170]
  404596:	00 
  404597:	8b 94 24 68 01 00 00 	mov    edx,DWORD PTR [rsp+0x168]
  40459e:	44 8b 9c 24 b0 01 00 	mov    r11d,DWORD PTR [rsp+0x1b0]
  4045a5:	00 
  4045a6:	48 8b 8c 24 28 02 00 	mov    rcx,QWORD PTR [rsp+0x228]
  4045ad:	00 
  4045ae:	45 03 ce             	add    r9d,r14d
  4045b1:	48 8b 9c 24 70 02 00 	mov    rbx,QWORD PTR [rsp+0x270]
  4045b8:	00 
  4045b9:	42 8d 3c 32          	lea    edi,[rdx+r14*1]
  4045bd:	8b b4 24 88 02 00 00 	mov    esi,DWORD PTR [rsp+0x288]
  4045c4:	0f 1f 44 00 00       	nop    DWORD PTR [rax+rax*1+0x0]
  4045c9:	0f 1f 80 00 00 00 00 	nop    DWORD PTR [rax+0x0]
  4045d0:	49 63 d0             	movsxd rdx,r8d
  4045d3:	47 8d 3c 11          	lea    r15d,[r9+r10*1]
  4045d7:	4d 63 ff             	movsxd r15,r15d
  4045da:	41 ff c0             	inc    r8d
  4045dd:	48 c1 e2 07          	shl    rdx,0x7
  4045e1:	c4 a1 7c 10 04 b9    	vmovups ymm0,YMMWORD PTR [rcx+r15*4]
  4045e7:	c4 a1 7c 10 4c b9 20 	vmovups ymm1,YMMWORD PTR [rcx+r15*4+0x20]
  4045ee:	c5 fc 11 04 13       	vmovups YMMWORD PTR [rbx+rdx*1],ymm0
  4045f3:	c5 fc 11 4c 13 20    	vmovups YMMWORD PTR [rbx+rdx*1+0x20],ymm1
  4045f9:	46 8d 3c 17          	lea    r15d,[rdi+r10*1]
  4045fd:	4d 63 ff             	movsxd r15,r15d
  404600:	45 8d 14 72          	lea    r10d,[r10+rsi*2]
  404604:	c4 a1 7c 10 14 b9    	vmovups ymm2,YMMWORD PTR [rcx+r15*4]
  40460a:	c4 a1 7c 10 5c b9 20 	vmovups ymm3,YMMWORD PTR [rcx+r15*4+0x20]
  404611:	c5 fc 11 54 13 40    	vmovups YMMWORD PTR [rbx+rdx*1+0x40],ymm2
  404617:	c5 fc 11 5c 13 60    	vmovups YMMWORD PTR [rbx+rdx*1+0x60],ymm3
  40461d:	45 3b c3             	cmp    r8d,r11d
  404620:	72 ae                	jb     4045d0 <square_sgemm+0x12a0>
  404622:	44 89 9c 24 b0 01 00 	mov    DWORD PTR [rsp+0x1b0],r11d
  404629:	00 
  40462a:	43 8d 7c 00 01       	lea    edi,[r8+r8*1+0x1]
  40462f:	8d 57 ff             	lea    edx,[rdi-0x1]
  404632:	41 3b d5             	cmp    edx,r13d
  404635:	73 4a                	jae    404681 <square_sgemm+0x1351>
  404637:	8b 8c 24 88 02 00 00 	mov    ecx,DWORD PTR [rsp+0x288]
  40463e:	0f af cf             	imul   ecx,edi
  404641:	8b 94 24 78 01 00 00 	mov    edx,DWORD PTR [rsp+0x178]
  404648:	48 8b b4 24 28 02 00 	mov    rsi,QWORD PTR [rsp+0x228]
  40464f:	00 
  404650:	48 63 ff             	movsxd rdi,edi
  404653:	42 8d 1c 32          	lea    ebx,[rdx+r14*1]
  404657:	48 c1 e7 06          	shl    rdi,0x6
  40465b:	03 d9                	add    ebx,ecx
  40465d:	4c 8b 84 24 70 02 00 	mov    r8,QWORD PTR [rsp+0x270]
  404664:	00 
  404665:	48 63 db             	movsxd rbx,ebx
  404668:	c5 fc 10 04 9e       	vmovups ymm0,YMMWORD PTR [rsi+rbx*4]
  40466d:	c5 fc 10 4c 9e 20    	vmovups ymm1,YMMWORD PTR [rsi+rbx*4+0x20]
  404673:	c4 a1 7c 11 44 07 c0 	vmovups YMMWORD PTR [rdi+r8*1-0x40],ymm0
  40467a:	c4 a1 7c 11 4c 07 e0 	vmovups YMMWORD PTR [rdi+r8*1-0x20],ymm1
  404681:	48 83 c4 f0          	add    rsp,0xfffffffffffffff0
  404685:	ba 10 00 00 00       	mov    edx,0x10
  40468a:	48 8b 9c 24 80 02 00 	mov    rbx,QWORD PTR [rsp+0x280]
  404691:	00 
  404692:	4d 63 f6             	movsxd r14,r14d
  404695:	48 89 1c 24          	mov    QWORD PTR [rsp],rbx
  404699:	4c 8b 94 24 50 01 00 	mov    r10,QWORD PTR [rsp+0x150]
  4046a0:	00 
  4046a1:	8b b4 24 b8 02 00 00 	mov    esi,DWORD PTR [rsp+0x2b8]
  4046a8:	89 f1                	mov    ecx,esi
  4046aa:	8b bc 24 98 02 00 00 	mov    edi,DWORD PTR [rsp+0x298]
  4046b1:	4f 8d 04 b2          	lea    r8,[r10+r14*4]
  4046b5:	4c 8b 8c 24 70 02 00 	mov    r9,QWORD PTR [rsp+0x270]
  4046bc:	00 
  4046bd:	c5 f8 77             	vzeroupper 
  4046c0:	e8 1b 02 00 00       	call   4048e0 <do_block_avx_16k16>
  4046c5:	b8 10 00 00 00       	mov    eax,0x10
  4046ca:	48 83 c4 10          	add    rsp,0x10
  4046ce:	45 85 ed             	test   r13d,r13d
  4046d1:	0f 8e ea f8 ff ff    	jle    403fc1 <square_sgemm+0xc91>
  4046d7:	45 33 c9             	xor    r9d,r9d
  4046da:	be 01 00 00 00       	mov    esi,0x1
  4046df:	45 33 c0             	xor    r8d,r8d
  4046e2:	83 bc 24 b0 01 00 00 	cmp    DWORD PTR [rsp+0x1b0],0x0
  4046e9:	00 
  4046ea:	0f 84 92 00 00 00    	je     404782 <square_sgemm+0x1452>
  4046f0:	8b bc 24 70 01 00 00 	mov    edi,DWORD PTR [rsp+0x170]
  4046f7:	8b 94 24 68 01 00 00 	mov    edx,DWORD PTR [rsp+0x168]
  4046fe:	48 8b 8c 24 28 02 00 	mov    rcx,QWORD PTR [rsp+0x228]
  404705:	00 
  404706:	41 03 fe             	add    edi,r14d
  404709:	8b b4 24 88 02 00 00 	mov    esi,DWORD PTR [rsp+0x288]
  404710:	46 8d 14 32          	lea    r10d,[rdx+r14*1]
  404714:	8b 94 24 b0 01 00 00 	mov    edx,DWORD PTR [rsp+0x1b0]
  40471b:	0f 1f 44 00 00       	nop    DWORD PTR [rax+rax*1+0x0]
  404720:	4d 63 d9             	movsxd r11,r9d
  404723:	46 8d 3c 07          	lea    r15d,[rdi+r8*1]
  404727:	49 c1 e3 07          	shl    r11,0x7
  40472b:	41 ff c1             	inc    r9d
  40472e:	4d 63 ff             	movsxd r15,r15d
  404731:	c4 a1 7c 10 04 1b    	vmovups ymm0,YMMWORD PTR [rbx+r11*1]
  404737:	c4 a1 7c 10 4c 1b 20 	vmovups ymm1,YMMWORD PTR [rbx+r11*1+0x20]
  40473e:	c4 a1 7c 10 54 1b 40 	vmovups ymm2,YMMWORD PTR [rbx+r11*1+0x40]
  404745:	c4 a1 7c 10 5c 1b 60 	vmovups ymm3,YMMWORD PTR [rbx+r11*1+0x60]
  40474c:	c4 a1 7c 11 04 b9    	vmovups YMMWORD PTR [rcx+r15*4],ymm0
  404752:	c4 a1 7c 11 4c b9 20 	vmovups YMMWORD PTR [rcx+r15*4+0x20],ymm1
  404759:	47 8d 1c 02          	lea    r11d,[r10+r8*1]
  40475d:	4d 63 db             	movsxd r11,r11d
  404760:	45 8d 04 70          	lea    r8d,[r8+rsi*2]
  404764:	c4 a1 7c 11 14 99    	vmovups YMMWORD PTR [rcx+r11*4],ymm2
  40476a:	c4 a1 7c 11 5c 99 20 	vmovups YMMWORD PTR [rcx+r11*4+0x20],ymm3
  404771:	44 3b ca             	cmp    r9d,edx
  404774:	72 aa                	jb     404720 <square_sgemm+0x13f0>
  404776:	89 94 24 b0 01 00 00 	mov    DWORD PTR [rsp+0x1b0],edx
  40477d:	43 8d 74 09 01       	lea    esi,[r9+r9*1+0x1]
  404782:	8d 56 ff             	lea    edx,[rsi-0x1]
  404785:	41 3b d5             	cmp    edx,r13d
  404788:	0f 83 33 f8 ff ff    	jae    403fc1 <square_sgemm+0xc91>
  40478e:	48 63 d6             	movsxd rdx,esi
  404791:	0f af b4 24 88 02 00 	imul   esi,DWORD PTR [rsp+0x288]
  404798:	00 
  404799:	8b 9c 24 78 01 00 00 	mov    ebx,DWORD PTR [rsp+0x178]
  4047a0:	48 8b 8c 24 70 02 00 	mov    rcx,QWORD PTR [rsp+0x270]
  4047a7:	00 
  4047a8:	48 c1 e2 06          	shl    rdx,0x6
  4047ac:	42 8d 3c 33          	lea    edi,[rbx+r14*1]
  4047b0:	03 fe                	add    edi,esi
  4047b2:	48 63 ff             	movsxd rdi,edi
  4047b5:	48 8b b4 24 28 02 00 	mov    rsi,QWORD PTR [rsp+0x228]
  4047bc:	00 
  4047bd:	c5 fc 10 44 0a c0    	vmovups ymm0,YMMWORD PTR [rdx+rcx*1-0x40]
  4047c3:	c5 fc 10 4c 0a e0    	vmovups ymm1,YMMWORD PTR [rdx+rcx*1-0x20]
  4047c9:	c5 fc 11 04 be       	vmovups YMMWORD PTR [rsi+rdi*4],ymm0
  4047ce:	c5 fc 11 4c be 20    	vmovups YMMWORD PTR [rsi+rdi*4+0x20],ymm1
  4047d4:	e9 e8 f7 ff ff       	jmp    403fc1 <square_sgemm+0xc91>
  4047d9:	48 83 c4 f0          	add    rsp,0xfffffffffffffff0
  4047dd:	4d 63 f6             	movsxd r14,r14d
  4047e0:	4c 8b 94 24 98 01 00 	mov    r10,QWORD PTR [rsp+0x198]
  4047e7:	00 
  4047e8:	48 8b 9c 24 50 01 00 	mov    rbx,QWORD PTR [rsp+0x150]
  4047ef:	00 
  4047f0:	c5 f8 77             	vzeroupper 
  4047f3:	4f 8d 1c b2          	lea    r11,[r10+r14*4]
  4047f7:	4c 89 1c 24          	mov    QWORD PTR [rsp],r11
  4047fb:	4e 8d 04 b3          	lea    r8,[rbx+r14*4]
  4047ff:	8b bc 24 98 02 00 00 	mov    edi,DWORD PTR [rsp+0x298]
  404806:	89 fe                	mov    esi,edi
  404808:	89 fa                	mov    edx,edi
  40480a:	8b 8c 24 b8 02 00 00 	mov    ecx,DWORD PTR [rsp+0x2b8]
  404811:	4c 8b 8c 24 90 01 00 	mov    r9,QWORD PTR [rsp+0x190]
  404818:	00 
  404819:	e8 c2 00 00 00       	call   4048e0 <do_block_avx_16k16>
  40481e:	b8 10 00 00 00       	mov    eax,0x10
  404823:	48 83 c4 10          	add    rsp,0x10
  404827:	e9 95 f7 ff ff       	jmp    403fc1 <square_sgemm+0xc91>
  40482c:	83 fe 08             	cmp    esi,0x8
  40482f:	0f 8c a7 00 00 00    	jl     4048dc <square_sgemm+0x15ac>
  404835:	4d 63 d7             	movsxd r10,r15d
  404838:	45 89 f9             	mov    r9d,r15d
  40483b:	4c 0f af 94 24 58 02 	imul   r10,QWORD PTR [rsp+0x258]
  404842:	00 00 
  404844:	45 0f af ce          	imul   r9d,r14d
  404848:	48 63 c0             	movsxd rax,eax
  40484b:	44 03 cb             	add    r9d,ebx
  40484e:	4d 63 c9             	movsxd r9,r9d
  404851:	89 f1                	mov    ecx,esi
  404853:	83 e1 f8             	and    ecx,0xfffffff8
  404856:	33 ff                	xor    edi,edi
  404858:	4d 8d 04 84          	lea    r8,[r12+rax*4]
  40485c:	49 8d 54 85 00       	lea    rdx,[r13+rax*4+0x0]
  404861:	49 03 d2             	add    rdx,r10
  404864:	4f 8d 0c 88          	lea    r9,[r8+r9*4]
  404868:	4c 63 c1             	movsxd r8,ecx
  40486b:	c4 c1 7c 10 04 b9    	vmovups ymm0,YMMWORD PTR [r9+rdi*4]
  404871:	c5 fc 11 04 ba       	vmovups YMMWORD PTR [rdx+rdi*4],ymm0
  404876:	48 83 c7 08          	add    rdi,0x8
  40487a:	49 3b f8             	cmp    rdi,r8
  40487d:	72 ec                	jb     40486b <square_sgemm+0x153b>
  40487f:	8d 51 01             	lea    edx,[rcx+0x1]
  404882:	3b d6                	cmp    edx,esi
  404884:	0f 87 f2 f1 ff ff    	ja     403a7c <square_sgemm+0x74c>
  40488a:	44 89 fa             	mov    edx,r15d
  40488d:	2b f1                	sub    esi,ecx
  40488f:	41 0f af d6          	imul   edx,r14d
  404893:	62 f2 7d 28 7c c6    	vpbroadcastd ymm0,esi
  404899:	4d 63 c7             	movsxd r8,r15d
  40489c:	03 d3                	add    edx,ebx
  40489e:	4c 0f af 84 24 f8 02 	imul   r8,QWORD PTR [rsp+0x2f8]
  4048a5:	00 00 
  4048a7:	62 f1 7d 28 66 0d af 	vpcmpgtd k1,ymm0,YMMWORD PTR [rip+0x125af]        # 416e60 <test_sizes.659.0.0.7+0x260>
  4048ae:	25 01 00 
  4048b1:	48 63 c0             	movsxd rax,eax
  4048b4:	48 63 d2             	movsxd rdx,edx
  4048b7:	48 03 d0             	add    rdx,rax
  4048ba:	49 03 c0             	add    rax,r8
  4048bd:	48 63 c9             	movsxd rcx,ecx
  4048c0:	49 8d 3c 94          	lea    rdi,[r12+rdx*4]
  4048c4:	62 f1 7c a9 10 0c 8f 	vmovups ymm1{k1}{z},YMMWORD PTR [rdi+rcx*4]
  4048cb:	4d 8d 4c 85 00       	lea    r9,[r13+rax*4+0x0]
  4048d0:	62 d1 7c 29 11 0c 89 	vmovups YMMWORD PTR [r9+rcx*4]{k1},ymm1
  4048d7:	e9 a0 f1 ff ff       	jmp    403a7c <square_sgemm+0x74c>
  4048dc:	33 c9                	xor    ecx,ecx
  4048de:	eb 9f                	jmp    40487f <square_sgemm+0x154f>

00000000004048e0 <do_block_avx_16k16>:
  4048e0:	41 54                	push   r12
  4048e2:	41 55                	push   r13
  4048e4:	41 56                	push   r14
  4048e6:	41 57                	push   r15
  4048e8:	53                   	push   rbx
  4048e9:	48 81 ec e0 00 00 00 	sub    rsp,0xe0
  4048f0:	48 63 d2             	movsxd rdx,edx
  4048f3:	4c 8b bc 24 10 01 00 	mov    r15,QWORD PTR [rsp+0x110]
  4048fa:	00 
  4048fb:	8d 04 12             	lea    eax,[rdx+rdx*1]
  4048fe:	48 63 c0             	movsxd rax,eax
  404901:	44 8d 14 52          	lea    r10d,[rdx+rdx*2]
  404905:	48 89 44 24 50       	mov    QWORD PTR [rsp+0x50],rax
  40490a:	44 8d 24 d2          	lea    r12d,[rdx+rdx*8]
  40490e:	4d 63 d2             	movsxd r10,r10d
  404911:	44 8d 1c 95 00 00 00 	lea    r11d,[rdx*4+0x0]
  404918:	00 
  404919:	4c 89 84 24 80 00 00 	mov    QWORD PTR [rsp+0x80],r8
  404920:	00 
  404921:	44 8d 04 d5 00 00 00 	lea    r8d,[rdx*8+0x0]
  404928:	00 
  404929:	62 c1 7c 48 10 04 87 	vmovups zmm16,ZMMWORD PTR [r15+rax*4]
  404930:	8d 04 92             	lea    eax,[rdx+rdx*4]
  404933:	62 c1 7c 48 10 0c 97 	vmovups zmm17,ZMMWORD PTR [r15+rdx*4]
  40493a:	62 11 7c 48 10 3c 97 	vmovups zmm15,ZMMWORD PTR [r15+r10*4]
  404941:	62 c1 7c 48 10 17    	vmovups zmm18,ZMMWORD PTR [r15]
  404947:	48 63 c0             	movsxd rax,eax
  40494a:	43 8d 1c 12          	lea    ebx,[r10+r10*1]
  40494e:	48 89 44 24 58       	mov    QWORD PTR [rsp+0x58],rax
  404953:	89 bc 24 88 00 00 00 	mov    DWORD PTR [rsp+0x88],edi
  40495a:	44 89 c7             	mov    edi,r8d
  40495d:	4d 63 e4             	movsxd r12,r12d
  404960:	2b fa                	sub    edi,edx
  404962:	62 51 7c 48 10 2c 87 	vmovups zmm13,ZMMWORD PTR [r15+rax*4]
  404969:	03 c0                	add    eax,eax
  40496b:	62 11 7c 48 10 0c a7 	vmovups zmm9,ZMMWORD PTR [r15+r12*4]
  404972:	48 63 c0             	movsxd rax,eax
  404975:	45 8d 2c 54          	lea    r13d,[r12+rdx*2]
  404979:	48 89 44 24 10       	mov    QWORD PTR [rsp+0x10],rax
  40497e:	45 8d 34 94          	lea    r14d,[r12+rdx*4]
  404982:	48 89 54 24 20       	mov    QWORD PTR [rsp+0x20],rdx
  404987:	4c 89 54 24 78       	mov    QWORD PTR [rsp+0x78],r10
  40498c:	62 c1 7c 48 10 1c 87 	vmovups zmm19,ZMMWORD PTR [r15+rax*4]
  404993:	89 d0                	mov    eax,edx
  404995:	c1 e0 04             	shl    eax,0x4
  404998:	2b c2                	sub    eax,edx
  40499a:	f7 da                	neg    edx
  40499c:	41 c1 e2 02          	shl    r10d,0x2
  4049a0:	03 d0                	add    edx,eax
  4049a2:	4d 63 db             	movsxd r11,r11d
  4049a5:	48 63 db             	movsxd rbx,ebx
  4049a8:	4d 63 d2             	movsxd r10,r10d
  4049ab:	48 63 ff             	movsxd rdi,edi
  4049ae:	4d 63 c0             	movsxd r8,r8d
  4049b1:	4d 63 ed             	movsxd r13,r13d
  4049b4:	4d 63 f6             	movsxd r14,r14d
  4049b7:	48 63 d2             	movsxd rdx,edx
  4049ba:	48 63 c0             	movsxd rax,eax
  4049bd:	48 63 c9             	movsxd rcx,ecx
  4049c0:	48 89 8c 24 90 00 00 	mov    QWORD PTR [rsp+0x90],rcx
  4049c7:	00 
  4049c8:	4c 89 5c 24 08       	mov    QWORD PTR [rsp+0x8],r11
  4049cd:	62 11 7c 48 10 34 9f 	vmovups zmm14,ZMMWORD PTR [r15+r11*4]
  4049d4:	62 51 7c 48 10 24 9f 	vmovups zmm12,ZMMWORD PTR [r15+rbx*4]
  4049db:	62 91 7c 48 10 3c 97 	vmovups zmm7,ZMMWORD PTR [r15+r10*4]
  4049e2:	62 51 7c 48 10 1c bf 	vmovups zmm11,ZMMWORD PTR [r15+rdi*4]
  4049e9:	62 11 7c 48 10 14 87 	vmovups zmm10,ZMMWORD PTR [r15+r8*4]
  4049f0:	62 11 7c 48 10 04 af 	vmovups zmm8,ZMMWORD PTR [r15+r13*4]
  4049f7:	62 91 7c 48 10 34 b7 	vmovups zmm6,ZMMWORD PTR [r15+r14*4]
  4049fe:	62 d1 7c 48 10 2c 97 	vmovups zmm5,ZMMWORD PTR [r15+rdx*4]
  404a05:	62 d1 7c 48 10 24 87 	vmovups zmm4,ZMMWORD PTR [r15+rax*4]
  404a0c:	48 89 5c 24 60       	mov    QWORD PTR [rsp+0x60],rbx
  404a11:	4c 89 54 24 18       	mov    QWORD PTR [rsp+0x18],r10
  404a16:	48 89 7c 24 28       	mov    QWORD PTR [rsp+0x28],rdi
  404a1b:	4c 89 44 24 68       	mov    QWORD PTR [rsp+0x68],r8
  404a20:	4c 89 64 24 70       	mov    QWORD PTR [rsp+0x70],r12
  404a25:	4c 89 6c 24 30       	mov    QWORD PTR [rsp+0x30],r13
  404a2a:	4c 89 74 24 38       	mov    QWORD PTR [rsp+0x38],r14
  404a2f:	48 89 54 24 48       	mov    QWORD PTR [rsp+0x48],rdx
  404a34:	48 89 44 24 40       	mov    QWORD PTR [rsp+0x40],rax
  404a39:	33 c0                	xor    eax,eax
  404a3b:	48 83 f9 03          	cmp    rcx,0x3
  404a3f:	0f 8e 0b 04 00 00    	jle    404e50 <do_block_avx_16k16+0x570>
  404a45:	48 63 f6             	movsxd rsi,esi
  404a48:	89 34 24             	mov    DWORD PTR [rsp],esi
  404a4b:	8d 0c b6             	lea    ecx,[rsi+rsi*4]
  404a4e:	48 63 c9             	movsxd rcx,ecx
  404a51:	44 8d 04 b5 00 00 00 	lea    r8d,[rsi*4+0x0]
  404a58:	00 
  404a59:	4d 63 c0             	movsxd r8,r8d
  404a5c:	8d 3c 76             	lea    edi,[rsi+rsi*2]
  404a5f:	48 63 ff             	movsxd rdi,edi
  404a62:	44 8d 14 36          	lea    r10d,[rsi+rsi*1]
  404a66:	4d 63 d2             	movsxd r10,r10d
  404a69:	44 8d 34 3f          	lea    r14d,[rdi+rdi*1]
  404a6d:	4d 63 f6             	movsxd r14,r14d
  404a70:	49 8d 14 89          	lea    rdx,[r9+rcx*4]
  404a74:	48 89 94 24 98 00 00 	mov    QWORD PTR [rsp+0x98],rdx
  404a7b:	00 
  404a7c:	8d 14 f5 00 00 00 00 	lea    edx,[rsi*8+0x0]
  404a83:	03 c9                	add    ecx,ecx
  404a85:	4f 8d 1c 81          	lea    r11,[r9+r8*4]
  404a89:	4c 89 9c 24 c8 00 00 	mov    QWORD PTR [rsp+0xc8],r11
  404a90:	00 
  404a91:	41 89 d3             	mov    r11d,edx
  404a94:	44 2b de             	sub    r11d,esi
  404a97:	4d 8d 24 b9          	lea    r12,[r9+rdi*4]
  404a9b:	c1 e7 02             	shl    edi,0x2
  404a9e:	44 8d 2c f6          	lea    r13d,[rsi+rsi*8]
  404aa2:	48 63 c9             	movsxd rcx,ecx
  404aa5:	49 8d 1c b1          	lea    rbx,[r9+rsi*4]
  404aa9:	48 63 ff             	movsxd rdi,edi
  404aac:	4d 63 db             	movsxd r11,r11d
  404aaf:	4d 63 ed             	movsxd r13,r13d
  404ab2:	48 89 9c 24 b0 00 00 	mov    QWORD PTR [rsp+0xb0],rbx
  404ab9:	00 
  404aba:	4b 8d 1c 91          	lea    rbx,[r9+r10*4]
  404abe:	4c 89 a4 24 a8 00 00 	mov    QWORD PTR [rsp+0xa8],r12
  404ac5:	00 
  404ac6:	4d 8d 14 89          	lea    r10,[r9+rcx*4]
  404aca:	48 63 d2             	movsxd rdx,edx
  404acd:	4d 8d 04 b9          	lea    r8,[r9+rdi*4]
  404ad1:	4c 89 84 24 a0 00 00 	mov    QWORD PTR [rsp+0xa0],r8
  404ad8:	00 
  404ad9:	4b 8d 0c 99          	lea    rcx,[r9+r11*4]
  404add:	48 89 8c 24 b8 00 00 	mov    QWORD PTR [rsp+0xb8],rcx
  404ae4:	00 
  404ae5:	4f 8d 04 a9          	lea    r8,[r9+r13*4]
  404ae9:	45 8d 5c 75 00       	lea    r11d,[r13+rsi*2+0x0]
  404aee:	4d 63 db             	movsxd r11,r11d
  404af1:	41 8d 4c b5 00       	lea    ecx,[r13+rsi*4+0x0]
  404af6:	41 89 f5             	mov    r13d,esi
  404af9:	4f 8d 24 b1          	lea    r12,[r9+r14*4]
  404afd:	41 c1 e5 04          	shl    r13d,0x4
  404b01:	49 8d 3c 91          	lea    rdi,[r9+rdx*4]
  404b05:	44 2b ee             	sub    r13d,esi
  404b08:	45 89 ee             	mov    r14d,r13d
  404b0b:	4f 8d 1c 99          	lea    r11,[r9+r11*4]
  404b0f:	44 2b f6             	sub    r14d,esi
  404b12:	4d 63 f6             	movsxd r14,r14d
  404b15:	4d 63 ed             	movsxd r13,r13d
  404b18:	48 63 c9             	movsxd rcx,ecx
  404b1b:	4b 8d 14 b1          	lea    rdx,[r9+r14*4]
  404b1f:	44 8b b4 24 88 00 00 	mov    r14d,DWORD PTR [rsp+0x88]
  404b26:	00 
  404b27:	4f 8d 2c a9          	lea    r13,[r9+r13*4]
  404b2b:	4c 89 ac 24 c0 00 00 	mov    QWORD PTR [rsp+0xc0],r13
  404b32:	00 
  404b33:	49 8d 0c 89          	lea    rcx,[r9+rcx*4]
  404b37:	47 8d 2c 76          	lea    r13d,[r14+r14*2]
  404b3b:	4c 8b b4 24 90 00 00 	mov    r14,QWORD PTR [rsp+0x90]
  404b42:	00 
  404b43:	44 89 ac 24 d0 00 00 	mov    DWORD PTR [rsp+0xd0],r13d
  404b4a:	00 
  404b4b:	44 8b ac 24 88 00 00 	mov    r13d,DWORD PTR [rsp+0x88]
  404b52:	00 
  404b53:	4d 8d 76 fd          	lea    r14,[r14-0x3]
  404b57:	4c 89 b4 24 d8 00 00 	mov    QWORD PTR [rsp+0xd8],r14
  404b5e:	00 
  404b5f:	4c 8b b4 24 80 00 00 	mov    r14,QWORD PTR [rsp+0x80]
  404b66:	00 
  404b67:	89 c6                	mov    esi,eax
  404b69:	41 0f af f5          	imul   esi,r13d
  404b6d:	48 63 f6             	movsxd rsi,esi
  404b70:	45 8d 7c 35 00       	lea    r15d,[r13+rsi*1+0x0]
  404b75:	4d 63 ff             	movsxd r15,r15d
  404b78:	62 d1 7c 48 10 14 b6 	vmovups zmm2,ZMMWORD PTR [r14+rsi*4]
  404b7f:	62 91 7c 48 10 0c be 	vmovups zmm1,ZMMWORD PTR [r14+r15*4]
  404b86:	46 8d 3c 6e          	lea    r15d,[rsi+r13*2]
  404b8a:	03 b4 24 d0 00 00 00 	add    esi,DWORD PTR [rsp+0xd0]
  404b91:	48 63 f6             	movsxd rsi,esi
  404b94:	4d 63 ff             	movsxd r15,r15d
  404b97:	62 d1 7c 48 10 1c b6 	vmovups zmm3,ZMMWORD PTR [r14+rsi*4]
  404b9e:	62 91 7c 48 10 04 be 	vmovups zmm0,ZMMWORD PTR [r14+r15*4]
  404ba5:	62 c1 64 58 59 64 81 	vmulps zmm20,zmm3,DWORD PTR [r9+rax*4+0xc]{1to16}
  404bac:	03 
  404bad:	62 e1 64 58 59 74 83 	vmulps zmm22,zmm3,DWORD PTR [rbx+rax*4+0xc]{1to16}
  404bb4:	03 
  404bb5:	62 41 64 58 59 54 84 	vmulps zmm26,zmm3,DWORD PTR [r12+rax*4+0xc]{1to16}
  404bbc:	03 
  404bbd:	62 61 64 58 59 64 87 	vmulps zmm28,zmm3,DWORD PTR [rdi+rax*4+0xc]{1to16}
  404bc4:	03 
  404bc5:	62 41 64 58 59 6c 80 	vmulps zmm29,zmm3,DWORD PTR [r8+rax*4+0xc]{1to16}
  404bcc:	03 
  404bcd:	62 41 64 58 59 74 82 	vmulps zmm30,zmm3,DWORD PTR [r10+rax*4+0xc]{1to16}
  404bd4:	03 
  404bd5:	62 41 64 58 59 7c 83 	vmulps zmm31,zmm3,DWORD PTR [r11+rax*4+0xc]{1to16}
  404bdc:	03 
  404bdd:	62 c2 7d 58 b8 64 81 	vfmadd231ps zmm20,zmm0,DWORD PTR [r9+rax*4+0x8]{1to16}
  404be4:	02 
  404be5:	62 e2 7d 58 b8 74 83 	vfmadd231ps zmm22,zmm0,DWORD PTR [rbx+rax*4+0x8]{1to16}
  404bec:	02 
  404bed:	62 42 7d 58 b8 54 84 	vfmadd231ps zmm26,zmm0,DWORD PTR [r12+rax*4+0x8]{1to16}
  404bf4:	02 
  404bf5:	62 62 7d 58 b8 64 87 	vfmadd231ps zmm28,zmm0,DWORD PTR [rdi+rax*4+0x8]{1to16}
  404bfc:	02 
  404bfd:	62 42 7d 58 b8 6c 80 	vfmadd231ps zmm29,zmm0,DWORD PTR [r8+rax*4+0x8]{1to16}
  404c04:	02 
  404c05:	62 c2 75 58 b8 64 81 	vfmadd231ps zmm20,zmm1,DWORD PTR [r9+rax*4+0x4]{1to16}
  404c0c:	01 
  404c0d:	62 e2 75 58 b8 74 83 	vfmadd231ps zmm22,zmm1,DWORD PTR [rbx+rax*4+0x4]{1to16}
  404c14:	01 
  404c15:	62 42 7d 58 b8 74 82 	vfmadd231ps zmm30,zmm0,DWORD PTR [r10+rax*4+0x8]{1to16}
  404c1c:	02 
  404c1d:	62 42 7d 58 b8 7c 83 	vfmadd231ps zmm31,zmm0,DWORD PTR [r11+rax*4+0x8]{1to16}
  404c24:	02 
  404c25:	62 42 75 58 b8 54 84 	vfmadd231ps zmm26,zmm1,DWORD PTR [r12+rax*4+0x4]{1to16}
  404c2c:	01 
  404c2d:	62 c2 6d 58 b8 24 81 	vfmadd231ps zmm20,zmm2,DWORD PTR [r9+rax*4]{1to16}
  404c34:	62 e2 6d 58 b8 34 83 	vfmadd231ps zmm22,zmm2,DWORD PTR [rbx+rax*4]{1to16}
  404c3b:	62 62 75 58 b8 64 87 	vfmadd231ps zmm28,zmm1,DWORD PTR [rdi+rax*4+0x4]{1to16}
  404c42:	01 
  404c43:	62 42 75 58 b8 6c 80 	vfmadd231ps zmm29,zmm1,DWORD PTR [r8+rax*4+0x4]{1to16}
  404c4a:	01 
  404c4b:	62 42 75 58 b8 74 82 	vfmadd231ps zmm30,zmm1,DWORD PTR [r10+rax*4+0x4]{1to16}
  404c52:	01 
  404c53:	62 42 75 58 b8 7c 83 	vfmadd231ps zmm31,zmm1,DWORD PTR [r11+rax*4+0x4]{1to16}
  404c5a:	01 
  404c5b:	62 42 6d 58 b8 14 84 	vfmadd231ps zmm26,zmm2,DWORD PTR [r12+rax*4]{1to16}
  404c62:	62 62 6d 58 b8 24 87 	vfmadd231ps zmm28,zmm2,DWORD PTR [rdi+rax*4]{1to16}
  404c69:	62 42 6d 58 b8 2c 80 	vfmadd231ps zmm29,zmm2,DWORD PTR [r8+rax*4]{1to16}
  404c70:	62 42 6d 58 b8 34 82 	vfmadd231ps zmm30,zmm2,DWORD PTR [r10+rax*4]{1to16}
  404c77:	62 42 6d 58 b8 3c 83 	vfmadd231ps zmm31,zmm2,DWORD PTR [r11+rax*4]{1to16}
  404c7e:	62 a1 5c 40 58 d2    	vaddps zmm18,zmm20,zmm18
  404c84:	62 a1 4c 40 58 c0    	vaddps zmm16,zmm22,zmm16
  404c8a:	62 51 2c 40 58 e4    	vaddps zmm12,zmm26,zmm12
  404c90:	62 51 1c 40 58 d2    	vaddps zmm10,zmm28,zmm10
  404c96:	62 51 14 40 58 c9    	vaddps zmm9,zmm29,zmm9
  404c9c:	62 a1 0c 40 58 db    	vaddps zmm19,zmm30,zmm19
  404ca2:	62 51 04 40 58 c0    	vaddps zmm8,zmm31,zmm8
  404ca8:	62 e1 64 58 59 74 82 	vmulps zmm22,zmm3,DWORD PTR [rdx+rax*4+0xc]{1to16}
  404caf:	03 
  404cb0:	48 8b b4 24 b0 00 00 	mov    rsi,QWORD PTR [rsp+0xb0]
  404cb7:	00 
  404cb8:	4c 8b bc 24 a8 00 00 	mov    r15,QWORD PTR [rsp+0xa8]
  404cbf:	00 
  404cc0:	62 e2 7d 58 b8 74 82 	vfmadd231ps zmm22,zmm0,DWORD PTR [rdx+rax*4+0x8]{1to16}
  404cc7:	02 
  404cc8:	62 e1 64 58 59 6c 86 	vmulps zmm21,zmm3,DWORD PTR [rsi+rax*4+0xc]{1to16}
  404ccf:	03 
  404cd0:	62 c1 64 58 59 7c 87 	vmulps zmm23,zmm3,DWORD PTR [r15+rax*4+0xc]{1to16}
  404cd7:	03 
  404cd8:	62 e2 75 58 b8 74 82 	vfmadd231ps zmm22,zmm1,DWORD PTR [rdx+rax*4+0x4]{1to16}
  404cdf:	01 
  404ce0:	62 e2 7d 58 b8 6c 86 	vfmadd231ps zmm21,zmm0,DWORD PTR [rsi+rax*4+0x8]{1to16}
  404ce7:	02 
  404ce8:	62 c2 7d 58 b8 7c 87 	vfmadd231ps zmm23,zmm0,DWORD PTR [r15+rax*4+0x8]{1to16}
  404cef:	02 
  404cf0:	62 e2 6d 58 b8 34 82 	vfmadd231ps zmm22,zmm2,DWORD PTR [rdx+rax*4]{1to16}
  404cf7:	62 e2 75 58 b8 6c 86 	vfmadd231ps zmm21,zmm1,DWORD PTR [rsi+rax*4+0x4]{1to16}
  404cfe:	01 
  404cff:	62 c2 75 58 b8 7c 87 	vfmadd231ps zmm23,zmm1,DWORD PTR [r15+rax*4+0x4]{1to16}
  404d06:	01 
  404d07:	62 f1 4c 40 58 ed    	vaddps zmm5,zmm22,zmm5
  404d0d:	0f 1f 00             	nop    DWORD PTR [rax]
  404d10:	62 e2 6d 58 b8 2c 86 	vfmadd231ps zmm21,zmm2,DWORD PTR [rsi+rax*4]{1to16}
  404d17:	62 c2 6d 58 b8 3c 87 	vfmadd231ps zmm23,zmm2,DWORD PTR [r15+rax*4]{1to16}
  404d1e:	62 a1 54 40 58 c9    	vaddps zmm17,zmm21,zmm17
  404d24:	62 51 44 40 58 ff    	vaddps zmm15,zmm23,zmm15
  404d2a:	62 e1 64 58 59 6c 81 	vmulps zmm21,zmm3,DWORD PTR [rcx+rax*4+0xc]{1to16}
  404d31:	03 
  404d32:	48 8b b4 24 c8 00 00 	mov    rsi,QWORD PTR [rsp+0xc8]
  404d39:	00 
  404d3a:	4c 8b bc 24 98 00 00 	mov    r15,QWORD PTR [rsp+0x98]
  404d41:	00 
  404d42:	62 e2 7d 58 b8 6c 81 	vfmadd231ps zmm21,zmm0,DWORD PTR [rcx+rax*4+0x8]{1to16}
  404d49:	02 
  404d4a:	62 61 64 58 59 44 86 	vmulps zmm24,zmm3,DWORD PTR [rsi+rax*4+0xc]{1to16}
  404d51:	03 
  404d52:	62 41 64 58 59 4c 87 	vmulps zmm25,zmm3,DWORD PTR [r15+rax*4+0xc]{1to16}
  404d59:	03 
  404d5a:	62 e2 75 58 b8 6c 81 	vfmadd231ps zmm21,zmm1,DWORD PTR [rcx+rax*4+0x4]{1to16}
  404d61:	01 
  404d62:	0f 1f 00             	nop    DWORD PTR [rax]
  404d65:	62 62 7d 58 b8 44 86 	vfmadd231ps zmm24,zmm0,DWORD PTR [rsi+rax*4+0x8]{1to16}
  404d6c:	02 
  404d6d:	62 42 7d 58 b8 4c 87 	vfmadd231ps zmm25,zmm0,DWORD PTR [r15+rax*4+0x8]{1to16}
  404d74:	02 
  404d75:	62 e2 6d 58 b8 2c 81 	vfmadd231ps zmm21,zmm2,DWORD PTR [rcx+rax*4]{1to16}
  404d7c:	62 62 75 58 b8 44 86 	vfmadd231ps zmm24,zmm1,DWORD PTR [rsi+rax*4+0x4]{1to16}
  404d83:	01 
  404d84:	62 42 75 58 b8 4c 87 	vfmadd231ps zmm25,zmm1,DWORD PTR [r15+rax*4+0x4]{1to16}
  404d8b:	01 
  404d8c:	62 f1 54 40 58 f6    	vaddps zmm6,zmm21,zmm6
  404d92:	62 62 6d 58 b8 04 86 	vfmadd231ps zmm24,zmm2,DWORD PTR [rsi+rax*4]{1to16}
  404d99:	62 42 6d 58 b8 0c 87 	vfmadd231ps zmm25,zmm2,DWORD PTR [r15+rax*4]{1to16}
  404da0:	62 51 3c 40 58 f6    	vaddps zmm14,zmm24,zmm14
  404da6:	62 51 34 40 58 ed    	vaddps zmm13,zmm25,zmm13
  404dac:	48 8b b4 24 b8 00 00 	mov    rsi,QWORD PTR [rsp+0xb8]
  404db3:	00 
  404db4:	4c 8b bc 24 a0 00 00 	mov    r15,QWORD PTR [rsp+0xa0]
  404dbb:	00 
  404dbc:	62 61 64 58 59 5c 86 	vmulps zmm27,zmm3,DWORD PTR [rsi+rax*4+0xc]{1to16}
  404dc3:	03 
  404dc4:	62 c1 64 58 59 64 87 	vmulps zmm20,zmm3,DWORD PTR [r15+rax*4+0xc]{1to16}
  404dcb:	03 
  404dcc:	62 62 7d 58 b8 5c 86 	vfmadd231ps zmm27,zmm0,DWORD PTR [rsi+rax*4+0x8]{1to16}
  404dd3:	02 
  404dd4:	62 c2 7d 58 b8 64 87 	vfmadd231ps zmm20,zmm0,DWORD PTR [r15+rax*4+0x8]{1to16}
  404ddb:	02 
  404ddc:	62 62 75 58 b8 5c 86 	vfmadd231ps zmm27,zmm1,DWORD PTR [rsi+rax*4+0x4]{1to16}
  404de3:	01 
  404de4:	62 c2 75 58 b8 64 87 	vfmadd231ps zmm20,zmm1,DWORD PTR [r15+rax*4+0x4]{1to16}
  404deb:	01 
  404dec:	62 62 6d 58 b8 1c 86 	vfmadd231ps zmm27,zmm2,DWORD PTR [rsi+rax*4]{1to16}
  404df3:	62 c2 6d 58 b8 24 87 	vfmadd231ps zmm20,zmm2,DWORD PTR [r15+rax*4]{1to16}
  404dfa:	62 51 24 40 58 db    	vaddps zmm11,zmm27,zmm11
  404e00:	62 f1 5c 40 58 ff    	vaddps zmm7,zmm20,zmm7
  404e06:	48 8b b4 24 c0 00 00 	mov    rsi,QWORD PTR [rsp+0xc0]
  404e0d:	00 
  404e0e:	62 f1 64 58 59 5c 86 	vmulps zmm3,zmm3,DWORD PTR [rsi+rax*4+0xc]{1to16}
  404e15:	03 
  404e16:	62 f2 7d 58 b8 5c 86 	vfmadd231ps zmm3,zmm0,DWORD PTR [rsi+rax*4+0x8]{1to16}
  404e1d:	02 
  404e1e:	62 f2 75 58 b8 5c 86 	vfmadd231ps zmm3,zmm1,DWORD PTR [rsi+rax*4+0x4]{1to16}
  404e25:	01 
  404e26:	62 f2 6d 58 b8 1c 86 	vfmadd231ps zmm3,zmm2,DWORD PTR [rsi+rax*4]{1to16}
  404e2d:	48 83 c0 04          	add    rax,0x4
  404e31:	62 f1 64 48 58 e4    	vaddps zmm4,zmm3,zmm4
  404e37:	48 3b 84 24 d8 00 00 	cmp    rax,QWORD PTR [rsp+0xd8]
  404e3e:	00 
  404e3f:	0f 8c 22 fd ff ff    	jl     404b67 <do_block_avx_16k16+0x287>
  404e45:	4c 8b bc 24 10 01 00 	mov    r15,QWORD PTR [rsp+0x110]
  404e4c:	00 
  404e4d:	8b 34 24             	mov    esi,DWORD PTR [rsp]
  404e50:	48 3b 84 24 90 00 00 	cmp    rax,QWORD PTR [rsp+0x90]
  404e57:	00 
  404e58:	0f 8d 94 01 00 00    	jge    404ff2 <do_block_avx_16k16+0x712>
  404e5e:	48 63 f6             	movsxd rsi,esi
  404e61:	8d 1c 76             	lea    ebx,[rsi+rsi*2]
  404e64:	48 63 db             	movsxd rbx,ebx
  404e67:	44 8d 04 b6          	lea    r8d,[rsi+rsi*4]
  404e6b:	4d 63 c0             	movsxd r8,r8d
  404e6e:	8d 3c 1b             	lea    edi,[rbx+rbx*1]
  404e71:	48 63 ff             	movsxd rdi,edi
  404e74:	4d 8d 34 b1          	lea    r14,[r9+rsi*4]
  404e78:	44 8d 2c 36          	lea    r13d,[rsi+rsi*1]
  404e7c:	4d 63 ed             	movsxd r13,r13d
  404e7f:	44 8d 1c b5 00 00 00 	lea    r11d,[rsi*4+0x0]
  404e86:	00 
  404e87:	4d 63 db             	movsxd r11,r11d
  404e8a:	4d 8d 24 99          	lea    r12,[r9+rbx*4]
  404e8e:	c1 e3 02             	shl    ebx,0x2
  404e91:	49 8d 0c b9          	lea    rcx,[r9+rdi*4]
  404e95:	48 89 8c 24 a8 00 00 	mov    QWORD PTR [rsp+0xa8],rcx
  404e9c:	00 
  404e9d:	8d 3c f5 00 00 00 00 	lea    edi,[rsi*8+0x0]
  404ea4:	89 fa                	mov    edx,edi
  404ea6:	4f 8d 14 81          	lea    r10,[r9+r8*4]
  404eaa:	2b d6                	sub    edx,esi
  404eac:	45 03 c0             	add    r8d,r8d
  404eaf:	48 63 d2             	movsxd rdx,edx
  404eb2:	4f 8d 2c a9          	lea    r13,[r9+r13*4]
  404eb6:	48 63 ff             	movsxd rdi,edi
  404eb9:	4f 8d 1c 99          	lea    r11,[r9+r11*4]
  404ebd:	4d 63 c0             	movsxd r8,r8d
  404ec0:	48 63 db             	movsxd rbx,ebx
  404ec3:	49 8d 0c 91          	lea    rcx,[r9+rdx*4]
  404ec7:	48 89 8c 24 a0 00 00 	mov    QWORD PTR [rsp+0xa0],rcx
  404ece:	00 
  404ecf:	8d 0c f6             	lea    ecx,[rsi+rsi*8]
  404ed2:	48 63 c9             	movsxd rcx,ecx
  404ed5:	49 8d 3c b9          	lea    rdi,[r9+rdi*4]
  404ed9:	48 89 bc 24 98 00 00 	mov    QWORD PTR [rsp+0x98],rdi
  404ee0:	00 
  404ee1:	8d 3c 71             	lea    edi,[rcx+rsi*2]
  404ee4:	48 63 ff             	movsxd rdi,edi
  404ee7:	4f 8d 04 81          	lea    r8,[r9+r8*4]
  404eeb:	49 8d 1c 99          	lea    rbx,[r9+rbx*4]
  404eef:	49 8d 14 89          	lea    rdx,[r9+rcx*4]
  404ef3:	48 89 14 24          	mov    QWORD PTR [rsp],rdx
  404ef7:	89 f2                	mov    edx,esi
  404ef9:	8d 0c b1             	lea    ecx,[rcx+rsi*4]
  404efc:	c1 e2 04             	shl    edx,0x4
  404eff:	49 8d 3c b9          	lea    rdi,[r9+rdi*4]
  404f03:	2b d6                	sub    edx,esi
  404f05:	f7 de                	neg    esi
  404f07:	03 f2                	add    esi,edx
  404f09:	48 63 d2             	movsxd rdx,edx
  404f0c:	48 63 c9             	movsxd rcx,ecx
  404f0f:	48 63 f6             	movsxd rsi,esi
  404f12:	49 8d 14 91          	lea    rdx,[r9+rdx*4]
  404f16:	48 89 94 24 b0 00 00 	mov    QWORD PTR [rsp+0xb0],rdx
  404f1d:	00 
  404f1e:	49 8d 0c 89          	lea    rcx,[r9+rcx*4]
  404f22:	48 8b 94 24 80 00 00 	mov    rdx,QWORD PTR [rsp+0x80]
  404f29:	00 
  404f2a:	49 8d 34 b1          	lea    rsi,[r9+rsi*4]
  404f2e:	41 89 c7             	mov    r15d,eax
  404f31:	44 0f af bc 24 88 00 	imul   r15d,DWORD PTR [rsp+0x88]
  404f38:	00 00 
  404f3a:	4d 63 ff             	movsxd r15,r15d
  404f3d:	62 b1 7c 48 10 04 ba 	vmovups zmm0,ZMMWORD PTR [rdx+r15*4]
  404f44:	4c 8b bc 24 a8 00 00 	mov    r15,QWORD PTR [rsp+0xa8]
  404f4b:	00 
  404f4c:	62 c2 7d 58 b8 14 81 	vfmadd231ps zmm18,zmm0,DWORD PTR [r9+rax*4]{1to16}
  404f53:	62 c2 7d 58 b8 0c 86 	vfmadd231ps zmm17,zmm0,DWORD PTR [r14+rax*4]{1to16}
  404f5a:	62 52 7d 58 b8 24 87 	vfmadd231ps zmm12,zmm0,DWORD PTR [r15+rax*4]{1to16}
  404f61:	62 c2 7d 58 b8 44 85 	vfmadd231ps zmm16,zmm0,DWORD PTR [r13+rax*4+0x0]{1to16}
  404f68:	00 
  404f69:	62 52 7d 58 b8 3c 84 	vfmadd231ps zmm15,zmm0,DWORD PTR [r12+rax*4]{1to16}
  404f70:	62 52 7d 58 b8 34 83 	vfmadd231ps zmm14,zmm0,DWORD PTR [r11+rax*4]{1to16}
  404f77:	62 52 7d 58 b8 2c 82 	vfmadd231ps zmm13,zmm0,DWORD PTR [r10+rax*4]{1to16}
  404f7e:	62 c2 7d 58 b8 1c 80 	vfmadd231ps zmm19,zmm0,DWORD PTR [r8+rax*4]{1to16}
  404f85:	62 72 7d 58 b8 04 87 	vfmadd231ps zmm8,zmm0,DWORD PTR [rdi+rax*4]{1to16}
  404f8c:	62 f2 7d 58 b8 3c 83 	vfmadd231ps zmm7,zmm0,DWORD PTR [rbx+rax*4]{1to16}
  404f93:	62 f2 7d 58 b8 34 81 	vfmadd231ps zmm6,zmm0,DWORD PTR [rcx+rax*4]{1to16}
  404f9a:	62 f2 7d 58 b8 2c 86 	vfmadd231ps zmm5,zmm0,DWORD PTR [rsi+rax*4]{1to16}
  404fa1:	4c 8b bc 24 a0 00 00 	mov    r15,QWORD PTR [rsp+0xa0]
  404fa8:	00 
  404fa9:	62 52 7d 58 b8 1c 87 	vfmadd231ps zmm11,zmm0,DWORD PTR [r15+rax*4]{1to16}
  404fb0:	4c 8b bc 24 98 00 00 	mov    r15,QWORD PTR [rsp+0x98]
  404fb7:	00 
  404fb8:	62 52 7d 58 b8 14 87 	vfmadd231ps zmm10,zmm0,DWORD PTR [r15+rax*4]{1to16}
  404fbf:	4c 8b 3c 24          	mov    r15,QWORD PTR [rsp]
  404fc3:	62 52 7d 58 b8 0c 87 	vfmadd231ps zmm9,zmm0,DWORD PTR [r15+rax*4]{1to16}
  404fca:	4c 8b bc 24 b0 00 00 	mov    r15,QWORD PTR [rsp+0xb0]
  404fd1:	00 
  404fd2:	62 d2 7d 58 b8 24 87 	vfmadd231ps zmm4,zmm0,DWORD PTR [r15+rax*4]{1to16}
  404fd9:	48 ff c0             	inc    rax
  404fdc:	48 3b 84 24 90 00 00 	cmp    rax,QWORD PTR [rsp+0x90]
  404fe3:	00 
  404fe4:	0f 8c 44 ff ff ff    	jl     404f2e <do_block_avx_16k16+0x64e>
  404fea:	4c 8b bc 24 10 01 00 	mov    r15,QWORD PTR [rsp+0x110]
  404ff1:	00 
  404ff2:	48 8b 44 24 20       	mov    rax,QWORD PTR [rsp+0x20]
  404ff7:	48 8b 54 24 50       	mov    rdx,QWORD PTR [rsp+0x50]
  404ffc:	48 8b 4c 24 78       	mov    rcx,QWORD PTR [rsp+0x78]
  405001:	48 8b 5c 24 08       	mov    rbx,QWORD PTR [rsp+0x8]
  405006:	48 8b 74 24 58       	mov    rsi,QWORD PTR [rsp+0x58]
  40500b:	48 8b 7c 24 60       	mov    rdi,QWORD PTR [rsp+0x60]
  405010:	4c 8b 44 24 28       	mov    r8,QWORD PTR [rsp+0x28]
  405015:	4c 8b 4c 24 68       	mov    r9,QWORD PTR [rsp+0x68]
  40501a:	4c 8b 54 24 70       	mov    r10,QWORD PTR [rsp+0x70]
  40501f:	4c 8b 5c 24 10       	mov    r11,QWORD PTR [rsp+0x10]
  405024:	4c 8b 64 24 30       	mov    r12,QWORD PTR [rsp+0x30]
  405029:	4c 8b 6c 24 18       	mov    r13,QWORD PTR [rsp+0x18]
  40502e:	62 c1 7c 48 11 17    	vmovups ZMMWORD PTR [r15],zmm18
  405034:	62 c1 7c 48 11 0c 87 	vmovups ZMMWORD PTR [r15+rax*4],zmm17
  40503b:	62 c1 7c 48 11 04 97 	vmovups ZMMWORD PTR [r15+rdx*4],zmm16
  405042:	62 51 7c 48 11 3c 8f 	vmovups ZMMWORD PTR [r15+rcx*4],zmm15
  405049:	62 51 7c 48 11 34 9f 	vmovups ZMMWORD PTR [r15+rbx*4],zmm14
  405050:	62 51 7c 48 11 2c b7 	vmovups ZMMWORD PTR [r15+rsi*4],zmm13
  405057:	62 51 7c 48 11 24 bf 	vmovups ZMMWORD PTR [r15+rdi*4],zmm12
  40505e:	62 11 7c 48 11 1c 87 	vmovups ZMMWORD PTR [r15+r8*4],zmm11
  405065:	62 11 7c 48 11 14 8f 	vmovups ZMMWORD PTR [r15+r9*4],zmm10
  40506c:	62 11 7c 48 11 0c 97 	vmovups ZMMWORD PTR [r15+r10*4],zmm9
  405073:	62 81 7c 48 11 1c 9f 	vmovups ZMMWORD PTR [r15+r11*4],zmm19
  40507a:	62 11 7c 48 11 04 a7 	vmovups ZMMWORD PTR [r15+r12*4],zmm8
  405081:	62 91 7c 48 11 3c af 	vmovups ZMMWORD PTR [r15+r13*4],zmm7
  405088:	4c 8b 74 24 38       	mov    r14,QWORD PTR [rsp+0x38]
  40508d:	48 8b 44 24 48       	mov    rax,QWORD PTR [rsp+0x48]
  405092:	48 8b 54 24 40       	mov    rdx,QWORD PTR [rsp+0x40]
  405097:	62 91 7c 48 11 34 b7 	vmovups ZMMWORD PTR [r15+r14*4],zmm6
  40509e:	62 d1 7c 48 11 2c 87 	vmovups ZMMWORD PTR [r15+rax*4],zmm5
  4050a5:	62 d1 7c 48 11 24 97 	vmovups ZMMWORD PTR [r15+rdx*4],zmm4
  4050ac:	c5 f8 77             	vzeroupper 
  4050af:	48 81 c4 e0 00 00 00 	add    rsp,0xe0
  4050b6:	5b                   	pop    rbx
  4050b7:	41 5f                	pop    r15
  4050b9:	41 5e                	pop    r14
  4050bb:	41 5d                	pop    r13
  4050bd:	41 5c                	pop    r12
  4050bf:	c3                   	ret    

00000000004050c0 <do_block_avx_32k8>:
  4050c0:	41 54                	push   r12
  4050c2:	41 55                	push   r13
  4050c4:	41 56                	push   r14
  4050c6:	41 57                	push   r15
  4050c8:	53                   	push   rbx
  4050c9:	8d 04 d5 00 00 00 00 	lea    eax,[rdx*8+0x0]
  4050d0:	4c 63 e6             	movsxd r12,esi
  4050d3:	8d 34 52             	lea    esi,[rdx+rdx*2]
  4050d6:	4c 89 44 24 e8       	mov    QWORD PTR [rsp-0x18],r8
  4050db:	44 8d 14 12          	lea    r10d,[rdx+rdx*1]
  4050df:	48 63 ff             	movsxd rdi,edi
  4050e2:	8d 1c 95 00 00 00 00 	lea    ebx,[rdx*4+0x0]
  4050e9:	48 89 7c 24 f0       	mov    QWORD PTR [rsp-0x10],rdi
  4050ee:	8d 3c 92             	lea    edi,[rdx+rdx*4]
  4050f1:	4c 63 c6             	movsxd r8,esi
  4050f4:	03 f6                	add    esi,esi
  4050f6:	2b c2                	sub    eax,edx
  4050f8:	4c 63 da             	movsxd r11,edx
  4050fb:	33 d2                	xor    edx,edx
  4050fd:	4d 63 d2             	movsxd r10,r10d
  405100:	48 63 ff             	movsxd rdi,edi
  405103:	48 63 f6             	movsxd rsi,esi
  405106:	48 63 db             	movsxd rbx,ebx
  405109:	48 63 c0             	movsxd rax,eax
  40510c:	4c 8b 74 24 30       	mov    r14,QWORD PTR [rsp+0x30]
  405111:	4c 63 e9             	movsxd r13,ecx
  405114:	33 c9                	xor    ecx,ecx
  405116:	62 51 7c 48 10 3e    	vmovups zmm15,ZMMWORD PTR [r14]
  40511c:	62 d1 7c 48 10 7e 01 	vmovups zmm7,ZMMWORD PTR [r14+0x40]
  405123:	62 11 7c 48 10 34 9e 	vmovups zmm14,ZMMWORD PTR [r14+r11*4]
  40512a:	62 91 7c 48 10 74 9e 	vmovups zmm6,ZMMWORD PTR [r14+r11*4+0x40]
  405131:	01 
  405132:	62 11 7c 48 10 2c 96 	vmovups zmm13,ZMMWORD PTR [r14+r10*4]
  405139:	62 91 7c 48 10 6c 96 	vmovups zmm5,ZMMWORD PTR [r14+r10*4+0x40]
  405140:	01 
  405141:	62 51 7c 48 10 14 be 	vmovups zmm10,ZMMWORD PTR [r14+rdi*4]
  405148:	62 d1 7c 48 10 54 be 	vmovups zmm2,ZMMWORD PTR [r14+rdi*4+0x40]
  40514f:	01 
  405150:	62 11 7c 48 10 24 86 	vmovups zmm12,ZMMWORD PTR [r14+r8*4]
  405157:	62 91 7c 48 10 64 86 	vmovups zmm4,ZMMWORD PTR [r14+r8*4+0x40]
  40515e:	01 
  40515f:	62 51 7c 48 10 0c b6 	vmovups zmm9,ZMMWORD PTR [r14+rsi*4]
  405166:	62 d1 7c 48 10 4c b6 	vmovups zmm1,ZMMWORD PTR [r14+rsi*4+0x40]
  40516d:	01 
  40516e:	62 51 7c 48 10 1c 9e 	vmovups zmm11,ZMMWORD PTR [r14+rbx*4]
  405175:	62 d1 7c 48 10 5c 9e 	vmovups zmm3,ZMMWORD PTR [r14+rbx*4+0x40]
  40517c:	01 
  40517d:	62 51 7c 48 10 04 86 	vmovups zmm8,ZMMWORD PTR [r14+rax*4]
  405184:	62 d1 7c 48 10 44 86 	vmovups zmm0,ZMMWORD PTR [r14+rax*4+0x40]
  40518b:	01 
  40518c:	4d 85 ed             	test   r13,r13
  40518f:	0f 8e 6e 01 00 00    	jle    405303 <do_block_avx_32k8+0x243>
  405195:	48 89 74 24 b8       	mov    QWORD PTR [rsp-0x48],rsi
  40519a:	4f 8d 3c e1          	lea    r15,[r9+r12*8]
  40519e:	4c 89 7c 24 c8       	mov    QWORD PTR [rsp-0x38],r15
  4051a3:	4f 8d 3c 64          	lea    r15,[r12+r12*2]
  4051a7:	48 89 7c 24 b0       	mov    QWORD PTR [rsp-0x50],rdi
  4051ac:	4f 8d 34 a1          	lea    r14,[r9+r12*4]
  4051b0:	4c 89 74 24 d0       	mov    QWORD PTR [rsp-0x30],r14
  4051b5:	4f 8d 34 b9          	lea    r14,[r9+r15*4]
  4051b9:	4c 89 74 24 c0       	mov    QWORD PTR [rsp-0x40],r14
  4051be:	4f 8d 34 f9          	lea    r14,[r9+r15*8]
  4051c2:	4d 89 e7             	mov    r15,r12
  4051c5:	49 c1 e7 04          	shl    r15,0x4
  4051c9:	4c 89 74 24 d8       	mov    QWORD PTR [rsp-0x28],r14
  4051ce:	4f 8d 34 a4          	lea    r14,[r12+r12*4]
  4051d2:	4d 03 f9             	add    r15,r9
  4051d5:	4c 89 7c 24 e0       	mov    QWORD PTR [rsp-0x20],r15
  4051da:	4f 8d 3c b1          	lea    r15,[r9+r14*4]
  4051de:	4e 8d 34 a5 00 00 00 	lea    r14,[r12*4+0x0]
  4051e5:	00 
  4051e6:	49 c1 e4 05          	shl    r12,0x5
  4051ea:	4d 2b e6             	sub    r12,r14
  4051ed:	4d 03 e1             	add    r12,r9
  4051f0:	48 89 5c 24 a8       	mov    QWORD PTR [rsp-0x58],rbx
  4051f5:	4c 89 44 24 a0       	mov    QWORD PTR [rsp-0x60],r8
  4051fa:	4c 89 54 24 98       	mov    QWORD PTR [rsp-0x68],r10
  4051ff:	4c 89 5c 24 90       	mov    QWORD PTR [rsp-0x70],r11
  405204:	48 8b 5c 24 d8       	mov    rbx,QWORD PTR [rsp-0x28]
  405209:	4c 89 ff             	mov    rdi,r15
  40520c:	4c 8b 44 24 e0       	mov    r8,QWORD PTR [rsp-0x20]
  405211:	4c 8b 54 24 c0       	mov    r10,QWORD PTR [rsp-0x40]
  405216:	4c 8b 5c 24 c8       	mov    r11,QWORD PTR [rsp-0x38]
  40521b:	4c 8b 74 24 d0       	mov    r14,QWORD PTR [rsp-0x30]
  405220:	4c 8b 7c 24 f0       	mov    r15,QWORD PTR [rsp-0x10]
  405225:	48 8b 74 24 e8       	mov    rsi,QWORD PTR [rsp-0x18]
  40522a:	62 e1 7c 48 10 04 8e 	vmovups zmm16,ZMMWORD PTR [rsi+rcx*4]
  405231:	62 61 7c 48 10 4c 8e 	vmovups zmm25,ZMMWORD PTR [rsi+rcx*4+0x40]
  405238:	01 
  405239:	62 c2 7d 48 18 0c 91 	vbroadcastss zmm17,DWORD PTR [r9+rdx*4]
  405240:	62 c2 7d 48 18 14 96 	vbroadcastss zmm18,DWORD PTR [r14+rdx*4]
  405247:	62 c2 7d 48 18 1c 93 	vbroadcastss zmm19,DWORD PTR [r11+rdx*4]
  40524e:	62 c2 7d 48 18 24 92 	vbroadcastss zmm20,DWORD PTR [r10+rdx*4]
  405255:	62 c2 7d 48 18 2c 90 	vbroadcastss zmm21,DWORD PTR [r8+rdx*4]
  40525c:	62 e2 7d 48 18 34 97 	vbroadcastss zmm22,DWORD PTR [rdi+rdx*4]
  405263:	62 e2 7d 48 18 3c 93 	vbroadcastss zmm23,DWORD PTR [rbx+rdx*4]
  40526a:	62 42 7d 48 18 04 94 	vbroadcastss zmm24,DWORD PTR [r12+rdx*4]
  405271:	62 32 75 40 b8 f8    	vfmadd231ps zmm15,zmm17,zmm16
  405277:	62 32 6d 40 b8 f0    	vfmadd231ps zmm14,zmm18,zmm16
  40527d:	62 32 65 40 b8 e8    	vfmadd231ps zmm13,zmm19,zmm16
  405283:	62 32 5d 40 b8 e0    	vfmadd231ps zmm12,zmm20,zmm16
  405289:	62 32 55 40 b8 d8    	vfmadd231ps zmm11,zmm21,zmm16
  40528f:	62 32 4d 40 b8 d0    	vfmadd231ps zmm10,zmm22,zmm16
  405295:	62 32 45 40 b8 c8    	vfmadd231ps zmm9,zmm23,zmm16
  40529b:	62 32 3d 40 b8 c0    	vfmadd231ps zmm8,zmm24,zmm16
  4052a1:	62 92 75 40 b8 f9    	vfmadd231ps zmm7,zmm17,zmm25
  4052a7:	62 92 6d 40 b8 f1    	vfmadd231ps zmm6,zmm18,zmm25
  4052ad:	62 92 65 40 b8 e9    	vfmadd231ps zmm5,zmm19,zmm25
  4052b3:	62 92 5d 40 b8 e1    	vfmadd231ps zmm4,zmm20,zmm25
  4052b9:	62 92 55 40 b8 d9    	vfmadd231ps zmm3,zmm21,zmm25
  4052bf:	62 92 4d 40 b8 d1    	vfmadd231ps zmm2,zmm22,zmm25
  4052c5:	62 92 45 40 b8 c9    	vfmadd231ps zmm1,zmm23,zmm25
  4052cb:	62 92 3d 40 b8 c1    	vfmadd231ps zmm0,zmm24,zmm25
  4052d1:	48 ff c2             	inc    rdx
  4052d4:	49 03 cf             	add    rcx,r15
  4052d7:	49 3b d5             	cmp    rdx,r13
  4052da:	0f 82 4a ff ff ff    	jb     40522a <do_block_avx_32k8+0x16a>
  4052e0:	48 8b 74 24 b8       	mov    rsi,QWORD PTR [rsp-0x48]
  4052e5:	48 8b 7c 24 b0       	mov    rdi,QWORD PTR [rsp-0x50]
  4052ea:	48 8b 5c 24 a8       	mov    rbx,QWORD PTR [rsp-0x58]
  4052ef:	4c 8b 44 24 a0       	mov    r8,QWORD PTR [rsp-0x60]
  4052f4:	4c 8b 54 24 98       	mov    r10,QWORD PTR [rsp-0x68]
  4052f9:	4c 8b 5c 24 90       	mov    r11,QWORD PTR [rsp-0x70]
  4052fe:	4c 8b 74 24 30       	mov    r14,QWORD PTR [rsp+0x30]
  405303:	62 51 7c 48 11 3e    	vmovups ZMMWORD PTR [r14],zmm15
  405309:	62 11 7c 48 11 34 9e 	vmovups ZMMWORD PTR [r14+r11*4],zmm14
  405310:	62 11 7c 48 11 2c 96 	vmovups ZMMWORD PTR [r14+r10*4],zmm13
  405317:	62 11 7c 48 11 24 86 	vmovups ZMMWORD PTR [r14+r8*4],zmm12
  40531e:	62 51 7c 48 11 1c 9e 	vmovups ZMMWORD PTR [r14+rbx*4],zmm11
  405325:	62 51 7c 48 11 14 be 	vmovups ZMMWORD PTR [r14+rdi*4],zmm10
  40532c:	62 51 7c 48 11 0c b6 	vmovups ZMMWORD PTR [r14+rsi*4],zmm9
  405333:	62 51 7c 48 11 04 86 	vmovups ZMMWORD PTR [r14+rax*4],zmm8
  40533a:	62 d1 7c 48 11 7e 01 	vmovups ZMMWORD PTR [r14+0x40],zmm7
  405341:	62 91 7c 48 11 74 9e 	vmovups ZMMWORD PTR [r14+r11*4+0x40],zmm6
  405348:	01 
  405349:	62 91 7c 48 11 6c 96 	vmovups ZMMWORD PTR [r14+r10*4+0x40],zmm5
  405350:	01 
  405351:	62 91 7c 48 11 64 86 	vmovups ZMMWORD PTR [r14+r8*4+0x40],zmm4
  405358:	01 
  405359:	62 d1 7c 48 11 5c 9e 	vmovups ZMMWORD PTR [r14+rbx*4+0x40],zmm3
  405360:	01 
  405361:	62 d1 7c 48 11 54 be 	vmovups ZMMWORD PTR [r14+rdi*4+0x40],zmm2
  405368:	01 
  405369:	62 d1 7c 48 11 4c b6 	vmovups ZMMWORD PTR [r14+rsi*4+0x40],zmm1
  405370:	01 
  405371:	62 d1 7c 48 11 44 86 	vmovups ZMMWORD PTR [r14+rax*4+0x40],zmm0
  405378:	01 
  405379:	c5 f8 77             	vzeroupper 
  40537c:	5b                   	pop    rbx
  40537d:	41 5f                	pop    r15
  40537f:	41 5e                	pop    r14
  405381:	41 5d                	pop    r13
  405383:	41 5c                	pop    r12
  405385:	c3                   	ret    
  405386:	0f 1f 00             	nop    DWORD PTR [rax]
  405389:	0f 1f 80 00 00 00 00 	nop    DWORD PTR [rax+0x0]

0000000000405390 <acos>:
  405390:	f3 0f 1e fa          	repz nop edx
  405394:	48 c7 c0 40 f1 63 00 	mov    rax,0x63f140
  40539b:	ff 20                	jmp    QWORD PTR [rax]
  40539d:	0f 1f 00             	nop    DWORD PTR [rax]

00000000004053a0 <atan2>:
  4053a0:	f3 0f 1e fa          	repz nop edx
  4053a4:	48 c7 c0 80 f1 63 00 	mov    rax,0x63f180
  4053ab:	48 8b 00             	mov    rax,QWORD PTR [rax]
  4053ae:	ff e0                	jmp    rax

00000000004053b0 <ceil>:
  4053b0:	f3 0f 1e fa          	repz nop edx
  4053b4:	48 c7 c0 c0 f1 63 00 	mov    rax,0x63f1c0
  4053bb:	ff 20                	jmp    QWORD PTR [rax]
  4053bd:	0f 1f 00             	nop    DWORD PTR [rax]

00000000004053c0 <ceilf>:
  4053c0:	f3 0f 1e fa          	repz nop edx
  4053c4:	48 c7 c0 00 f2 63 00 	mov    rax,0x63f200
  4053cb:	ff 20                	jmp    QWORD PTR [rax]
  4053cd:	0f 1f 00             	nop    DWORD PTR [rax]

00000000004053d0 <cos>:
  4053d0:	f3 0f 1e fa          	repz nop edx
  4053d4:	48 c7 c0 40 f2 63 00 	mov    rax,0x63f240
  4053db:	ff 20                	jmp    QWORD PTR [rax]
  4053dd:	0f 1f 00             	nop    DWORD PTR [rax]

00000000004053e0 <exp>:
  4053e0:	f3 0f 1e fa          	repz nop edx
  4053e4:	48 c7 c0 80 f2 63 00 	mov    rax,0x63f280
  4053eb:	ff 20                	jmp    QWORD PTR [rax]
  4053ed:	0f 1f 00             	nop    DWORD PTR [rax]

00000000004053f0 <expf>:
  4053f0:	f3 0f 1e fa          	repz nop edx
  4053f4:	48 c7 c0 c0 f2 63 00 	mov    rax,0x63f2c0
  4053fb:	ff 20                	jmp    QWORD PTR [rax]
  4053fd:	0f 1f 00             	nop    DWORD PTR [rax]

0000000000405400 <fabs>:
  405400:	f3 0f 1e fa          	repz nop edx
  405404:	e9 87 00 00 00       	jmp    405490 <__libm_fabs_ex>
  405409:	0f 1f 80 00 00 00 00 	nop    DWORD PTR [rax+0x0]

0000000000405410 <floor>:
  405410:	f3 0f 1e fa          	repz nop edx
  405414:	48 c7 c0 00 f3 63 00 	mov    rax,0x63f300
  40541b:	ff 20                	jmp    QWORD PTR [rax]
  40541d:	0f 1f 00             	nop    DWORD PTR [rax]

0000000000405420 <log>:
  405420:	f3 0f 1e fa          	repz nop edx
  405424:	48 c7 c0 40 f3 63 00 	mov    rax,0x63f340
  40542b:	ff 20                	jmp    QWORD PTR [rax]
  40542d:	0f 1f 00             	nop    DWORD PTR [rax]

0000000000405430 <log10>:
  405430:	f3 0f 1e fa          	repz nop edx
  405434:	48 c7 c0 80 f3 63 00 	mov    rax,0x63f380
  40543b:	ff 20                	jmp    QWORD PTR [rax]
  40543d:	0f 1f 00             	nop    DWORD PTR [rax]

0000000000405440 <logf>:
  405440:	f3 0f 1e fa          	repz nop edx
  405444:	48 c7 c0 c0 f3 63 00 	mov    rax,0x63f3c0
  40544b:	ff 20                	jmp    QWORD PTR [rax]
  40544d:	0f 1f 00             	nop    DWORD PTR [rax]

0000000000405450 <pow>:
  405450:	f3 0f 1e fa          	repz nop edx
  405454:	48 c7 c0 00 f4 63 00 	mov    rax,0x63f400
  40545b:	48 8b 00             	mov    rax,QWORD PTR [rax]
  40545e:	ff e0                	jmp    rax

0000000000405460 <sin>:
  405460:	f3 0f 1e fa          	repz nop edx
  405464:	48 c7 c0 40 f4 63 00 	mov    rax,0x63f440
  40546b:	ff 20                	jmp    QWORD PTR [rax]
  40546d:	0f 1f 00             	nop    DWORD PTR [rax]

0000000000405470 <sqrt>:
  405470:	f3 0f 1e fa          	repz nop edx
  405474:	e9 37 00 00 00       	jmp    4054b0 <__libm_sqrt_ex>
  405479:	0f 1f 80 00 00 00 00 	nop    DWORD PTR [rax+0x0]

0000000000405480 <sqrtf>:
  405480:	f3 0f 1e fa          	repz nop edx
  405484:	48 c7 c0 80 f4 63 00 	mov    rax,0x63f480
  40548b:	ff 20                	jmp    QWORD PTR [rax]
  40548d:	0f 1f 00             	nop    DWORD PTR [rax]

0000000000405490 <__libm_fabs_ex>:
  405490:	f3 0f 1e fa          	repz nop edx
  405494:	f3 0f 7e 0d 04 1a 01 	movq   xmm1,QWORD PTR [rip+0x11a04]        # 416ea0 <SGNMASK>
  40549b:	00 
  40549c:	f3 0f 7e 15 0c 1a 01 	movq   xmm2,QWORD PTR [rip+0x11a0c]        # 416eb0 <ONE>
  4054a3:	00 
  4054a4:	66 0f 54 c1          	andpd  xmm0,xmm1
  4054a8:	f2 0f 59 c2          	mulsd  xmm0,xmm2
  4054ac:	c3                   	ret    
  4054ad:	0f 1f 00             	nop    DWORD PTR [rax]

00000000004054b0 <__libm_sqrt_ex>:
  4054b0:	f3 0f 1e fa          	repz nop edx
  4054b4:	48 83 ec 18          	sub    rsp,0x18
  4054b8:	f2 0f 11 04 24       	movsd  QWORD PTR [rsp],xmm0
  4054bd:	48 c7 c0 10 5f 40 00 	mov    rax,0x405f10
  4054c4:	48 89 44 24 08       	mov    QWORD PTR [rsp+0x8],rax
  4054c9:	f3 0f 7e d0          	movq   xmm2,xmm0
  4054cd:	66 0f 57 c9          	xorpd  xmm1,xmm1
  4054d1:	f2 0f 51 c0          	sqrtsd xmm0,xmm0
  4054d5:	66 0f d6 44 24 10    	movq   QWORD PTR [rsp+0x10],xmm0
  4054db:	66 0f 2e d1          	ucomisd xmm2,xmm1
  4054df:	73 19                	jae    4054fa <__libm_sqrt_ex+0x4a>
  4054e1:	7a 17                	jp     4054fa <__libm_sqrt_ex+0x4a>
  4054e3:	f2 0f 10 0c 24       	movsd  xmm1,QWORD PTR [rsp]
  4054e8:	f2 0f 10 14 24       	movsd  xmm2,QWORD PTR [rsp]
  4054ed:	b9 31 00 00 00       	mov    ecx,0x31
  4054f2:	66 0f 6e d9          	movd   xmm3,ecx
  4054f6:	ff 54 24 08          	call   QWORD PTR [rsp+0x8]
  4054fa:	f2 0f 11 44 24 10    	movsd  QWORD PTR [rsp+0x10],xmm0
  405500:	48 83 c4 18          	add    rsp,0x18
  405504:	c3                   	ret    
  405505:	66 2e 0f 1f 84 00 00 	nop    WORD PTR cs:[rax+rax*1+0x0]
  40550c:	00 00 00 
  40550f:	90                   	nop

0000000000405510 <__libm_setusermatherrf>:
  405510:	f3 0f 1e fa          	repz nop edx
  405514:	48 85 ff             	test   rdi,rdi
  405517:	75 07                	jne    405520 <__libm_setusermatherrf+0x10>
  405519:	48 c7 c7 40 64 40 00 	mov    rdi,0x406440
  405520:	48 c7 c0 20 f1 63 00 	mov    rax,0x63f120
  405527:	48 89 38             	mov    QWORD PTR [rax],rdi
  40552a:	c3                   	ret    
  40552b:	0f 1f 44 00 00       	nop    DWORD PTR [rax+rax*1+0x0]

0000000000405530 <__libm_setusermatherr>:
  405530:	f3 0f 1e fa          	repz nop edx
  405534:	48 85 ff             	test   rdi,rdi
  405537:	75 07                	jne    405540 <__libm_setusermatherr+0x10>
  405539:	48 c7 c7 30 64 40 00 	mov    rdi,0x406430
  405540:	48 c7 c0 28 f1 63 00 	mov    rax,0x63f128
  405547:	48 89 38             	mov    QWORD PTR [rax],rdi
  40554a:	c3                   	ret    
  40554b:	0f 1f 44 00 00       	nop    DWORD PTR [rax+rax*1+0x0]

0000000000405550 <__libm_setusermatherrl>:
  405550:	f3 0f 1e fa          	repz nop edx
  405554:	48 85 ff             	test   rdi,rdi
  405557:	75 07                	jne    405560 <__libm_setusermatherrl+0x10>
  405559:	48 c7 c7 50 64 40 00 	mov    rdi,0x406450
  405560:	48 c7 c0 30 f1 63 00 	mov    rax,0x63f130
  405567:	48 89 38             	mov    QWORD PTR [rax],rdi
  40556a:	c3                   	ret    
  40556b:	0f 1f 44 00 00       	nop    DWORD PTR [rax+rax*1+0x0]

0000000000405570 <__libm_copy_value>:
  405570:	f3 0f 1e fa          	repz nop edx
  405574:	85 d2                	test   edx,edx
  405576:	7e 38                	jle    4055b0 <__libm_copy_value+0x40>
  405578:	89 d0                	mov    eax,edx
  40557a:	48 8d 0c 46          	lea    rcx,[rsi+rax*2]
  40557e:	48 83 c1 fe          	add    rcx,0xfffffffffffffffe
  405582:	48 39 f9             	cmp    rcx,rdi
  405585:	72 2a                	jb     4055b1 <__libm_copy_value+0x41>
  405587:	48 8d 0c 47          	lea    rcx,[rdi+rax*2]
  40558b:	48 83 c1 fe          	add    rcx,0xfffffffffffffffe
  40558f:	48 39 f1             	cmp    rcx,rsi
  405592:	72 1d                	jb     4055b1 <__libm_copy_value+0x41>
  405594:	31 c9                	xor    ecx,ecx
  405596:	66 2e 0f 1f 84 00 00 	nop    WORD PTR cs:[rax+rax*1+0x0]
  40559d:	00 00 00 
  4055a0:	0f b7 14 4e          	movzx  edx,WORD PTR [rsi+rcx*2]
  4055a4:	66 89 14 4f          	mov    WORD PTR [rdi+rcx*2],dx
  4055a8:	48 ff c1             	inc    rcx
  4055ab:	48 39 c8             	cmp    rax,rcx
  4055ae:	75 f0                	jne    4055a0 <__libm_copy_value+0x30>
  4055b0:	c3                   	ret    
  4055b1:	83 fa 08             	cmp    edx,0x8
  4055b4:	72 1b                	jb     4055d1 <__libm_copy_value+0x61>
  4055b6:	48 8d 0c 00          	lea    rcx,[rax+rax*1]
  4055ba:	48 83 e1 f0          	and    rcx,0xfffffffffffffff0
  4055be:	31 d2                	xor    edx,edx
  4055c0:	0f 10 04 16          	movups xmm0,XMMWORD PTR [rsi+rdx*1]
  4055c4:	0f 11 04 17          	movups XMMWORD PTR [rdi+rdx*1],xmm0
  4055c8:	48 83 c2 10          	add    rdx,0x10
  4055cc:	48 39 d1             	cmp    rcx,rdx
  4055cf:	75 ef                	jne    4055c0 <__libm_copy_value+0x50>
  4055d1:	89 c1                	mov    ecx,eax
  4055d3:	83 e1 07             	and    ecx,0x7
  4055d6:	48 ff c9             	dec    rcx
  4055d9:	48 83 f9 06          	cmp    rcx,0x6
  4055dd:	77 d1                	ja     4055b0 <__libm_copy_value+0x40>
  4055df:	83 e0 f8             	and    eax,0xfffffff8
  4055e2:	48 8d 15 d7 18 01 00 	lea    rdx,[rip+0x118d7]        # 416ec0 <ONE+0x10>
  4055e9:	48 63 0c 8a          	movsxd rcx,DWORD PTR [rdx+rcx*4]
  4055ed:	48 01 d1             	add    rcx,rdx
  4055f0:	3e ff e1             	ds jmp rcx
  4055f3:	0f b7 4c 46 0c       	movzx  ecx,WORD PTR [rsi+rax*2+0xc]
  4055f8:	66 89 4c 47 0c       	mov    WORD PTR [rdi+rax*2+0xc],cx
  4055fd:	0f b7 4c 46 0a       	movzx  ecx,WORD PTR [rsi+rax*2+0xa]
  405602:	66 89 4c 47 0a       	mov    WORD PTR [rdi+rax*2+0xa],cx
  405607:	0f b7 4c 46 08       	movzx  ecx,WORD PTR [rsi+rax*2+0x8]
  40560c:	66 89 4c 47 08       	mov    WORD PTR [rdi+rax*2+0x8],cx
  405611:	0f b7 4c 46 06       	movzx  ecx,WORD PTR [rsi+rax*2+0x6]
  405616:	66 89 4c 47 06       	mov    WORD PTR [rdi+rax*2+0x6],cx
  40561b:	0f b7 4c 46 04       	movzx  ecx,WORD PTR [rsi+rax*2+0x4]
  405620:	66 89 4c 47 04       	mov    WORD PTR [rdi+rax*2+0x4],cx
  405625:	0f b7 4c 46 02       	movzx  ecx,WORD PTR [rsi+rax*2+0x2]
  40562a:	66 89 4c 47 02       	mov    WORD PTR [rdi+rax*2+0x2],cx
  40562f:	0f b7 0c 46          	movzx  ecx,WORD PTR [rsi+rax*2]
  405633:	66 89 0c 47          	mov    WORD PTR [rdi+rax*2],cx
  405637:	c3                   	ret    
  405638:	0f 1f 84 00 00 00 00 	nop    DWORD PTR [rax+rax*1+0x0]
  40563f:	00 

0000000000405640 <__libm_error_support>:
  405640:	f3 0f 1e fa          	repz nop edx
  405644:	55                   	push   rbp
  405645:	41 57                	push   r15
  405647:	41 56                	push   r14
  405649:	41 55                	push   r13
  40564b:	41 54                	push   r12
  40564d:	53                   	push   rbx
  40564e:	48 81 ec d8 00 00 00 	sub    rsp,0xd8
  405655:	64 48 8b 04 25 28 00 	mov    rax,QWORD PTR fs:0x28
  40565c:	00 00 
  40565e:	48 89 84 24 d0 00 00 	mov    QWORD PTR [rsp+0xd0],rax
  405665:	00 
  405666:	48 c7 c0 20 f1 63 00 	mov    rax,0x63f120
  40566d:	48 8b 00             	mov    rax,QWORD PTR [rax]
  405670:	48 89 44 24 50       	mov    QWORD PTR [rsp+0x50],rax
  405675:	48 c7 c0 28 f1 63 00 	mov    rax,0x63f128
  40567c:	48 8b 00             	mov    rax,QWORD PTR [rax]
  40567f:	48 89 44 24 58       	mov    QWORD PTR [rsp+0x58],rax
  405684:	48 c7 c0 30 f1 63 00 	mov    rax,0x63f130
  40568b:	48 8b 00             	mov    rax,QWORD PTR [rax]
  40568e:	48 89 44 24 60       	mov    QWORD PTR [rsp+0x60],rax
  405693:	48 c7 44 24 68 00 00 	mov    QWORD PTR [rsp+0x68],0x0
  40569a:	00 00 
  40569c:	48 c7 c0 18 f1 63 00 	mov    rax,0x63f118
  4056a3:	8b 00                	mov    eax,DWORD PTR [rax]
  4056a5:	83 f8 ff             	cmp    eax,0xffffffff
  4056a8:	0f 84 bc 05 00 00    	je     405c6a <__libm_error_support+0x62a>
  4056ae:	48 89 d3             	mov    rbx,rdx
  4056b1:	49 89 f6             	mov    r14,rsi
  4056b4:	49 89 ff             	mov    r15,rdi
  4056b7:	89 c9                	mov    ecx,ecx
  4056b9:	48 8d 15 90 1a 01 00 	lea    rdx,[rip+0x11a90]        # 417150 <__libm_err_code_mapping_table>
  4056c0:	0f b7 34 8a          	movzx  esi,WORD PTR [rdx+rcx*4]
  4056c4:	89 f1                	mov    ecx,esi
  4056c6:	83 e1 7f             	and    ecx,0x7f
  4056c9:	48 8d 15 d0 20 01 00 	lea    rdx,[rip+0x120d0]        # 4177a0 <__libm_err_data_table>
  4056d0:	8b 14 8a             	mov    edx,DWORD PTR [rdx+rcx*4]
  4056d3:	89 d7                	mov    edi,edx
  4056d5:	83 e7 07             	and    edi,0x7
  4056d8:	89 d1                	mov    ecx,edx
  4056da:	c1 e9 03             	shr    ecx,0x3
  4056dd:	83 e1 07             	and    ecx,0x7
  4056e0:	89 4c 24 2c          	mov    DWORD PTR [rsp+0x2c],ecx
  4056e4:	48 89 f1             	mov    rcx,rsi
  4056e7:	48 c1 e9 09          	shr    rcx,0x9
  4056eb:	48 89 4c 24 30       	mov    QWORD PTR [rsp+0x30],rcx
  4056f0:	c1 ee 07             	shr    esi,0x7
  4056f3:	83 e6 03             	and    esi,0x3
  4056f6:	01 c0                	add    eax,eax
  4056f8:	8d 0c 40             	lea    ecx,[rax+rax*2]
  4056fb:	80 c1 06             	add    cl,0x6
  4056fe:	d3 fa                	sar    edx,cl
  405700:	83 e2 3f             	and    edx,0x3f
  405703:	48 8d 05 46 21 01 00 	lea    rax,[rip+0x12146]        # 417850 <__libm_err_response_table>
  40570a:	0f b7 14 90          	movzx  edx,WORD PTR [rax+rdx*4]
  40570e:	89 d0                	mov    eax,edx
  405710:	c1 e8 02             	shr    eax,0x2
  405713:	25 f8 00 00 00       	and    eax,0xf8
  405718:	48 8d 0d 61 18 01 00 	lea    rcx,[rip+0x11861]        # 416f80 <__libm_action_list>
  40571f:	4c 8b 24 08          	mov    r12,QWORD PTR [rax+rcx*1]
  405723:	89 d0                	mov    eax,edx
  405725:	c1 e8 03             	shr    eax,0x3
  405728:	83 e0 03             	and    eax,0x3
  40572b:	89 44 24 10          	mov    DWORD PTR [rsp+0x10],eax
  40572f:	83 e2 07             	and    edx,0x7
  405732:	89 54 24 14          	mov    DWORD PTR [rsp+0x14],edx
  405736:	48 89 74 24 38       	mov    QWORD PTR [rsp+0x38],rsi
  40573b:	48 8d 04 76          	lea    rax,[rsi+rsi*2]
  40573f:	48 8d 0d fa 86 23 00 	lea    rcx,[rip+0x2386fa]        # 63de40 <__libm_error_support.__libm_type_info_table>
  405746:	4c 8d 04 c1          	lea    r8,[rcx+rax*8]
  40574a:	48 89 7c 24 48       	mov    QWORD PTR [rsp+0x48],rdi
  40574f:	48 c1 e7 02          	shl    rdi,0x2
  405753:	48 89 7c 24 40       	mov    QWORD PTR [rsp+0x40],rdi
  405758:	4c 8d 2d 7d 17 01 00 	lea    r13,[rip+0x1177d]        # 416edc <ONE+0x2c>
  40575f:	c7 44 24 0c 00 00 00 	mov    DWORD PTR [rsp+0xc],0x0
  405766:	00 
  405767:	31 c0                	xor    eax,eax
  405769:	48 89 44 24 20       	mov    QWORD PTR [rsp+0x20],rax
  40576e:	4c 89 44 24 18       	mov    QWORD PTR [rsp+0x18],r8
  405773:	eb 3b                	jmp    4057b0 <__libm_error_support+0x170>
  405775:	48 8b 44 24 30       	mov    rax,QWORD PTR [rsp+0x30]
  40577a:	48 8d 0d 1f 87 23 00 	lea    rcx,[rip+0x23871f]        # 63dea0 <__libm_func_names>
  405781:	48 8b 34 c1          	mov    rsi,QWORD PTR [rcx+rax*8]
  405785:	49 8b 10             	mov    rdx,QWORD PTR [r8]
  405788:	48 8b 44 24 40       	mov    rax,QWORD PTR [rsp+0x40]
  40578d:	48 8d 3d d0 17 01 00 	lea    rdi,[rip+0x117d0]        # 416f64 <reltable.__libm_error_support>
  405794:	48 63 0c 38          	movsxd rcx,DWORD PTR [rax+rdi*1]
  405798:	48 01 f9             	add    rcx,rdi
  40579b:	8b 7c 24 2c          	mov    edi,DWORD PTR [rsp+0x2c]
  40579f:	31 c0                	xor    eax,eax
  4057a1:	e8 fa 04 00 00       	call   405ca0 <write_message>
  4057a6:	4c 8b 44 24 18       	mov    r8,QWORD PTR [rsp+0x18]
  4057ab:	0f 1f 44 00 00       	nop    DWORD PTR [rax+rax*1+0x0]
  4057b0:	4c 89 e5             	mov    rbp,r12
  4057b3:	89 e8                	mov    eax,ebp
  4057b5:	83 e0 0f             	and    eax,0xf
  4057b8:	49 c1 fc 04          	sar    r12,0x4
  4057bc:	83 f8 0c             	cmp    eax,0xc
  4057bf:	77 ef                	ja     4057b0 <__libm_error_support+0x170>
  4057c1:	49 63 44 85 00       	movsxd rax,DWORD PTR [r13+rax*4+0x0]
  4057c6:	4c 01 e8             	add    rax,r13
  4057c9:	3e ff e0             	ds jmp rax
  4057cc:	8b 44 24 10          	mov    eax,DWORD PTR [rsp+0x10]
  4057d0:	48 8d 0d a5 24 01 00 	lea    rcx,[rip+0x124a5]        # 417c7c <__libm_error_support.__libm_errno_table>
  4057d7:	8b 2c 81             	mov    ebp,DWORD PTR [rcx+rax*4]
  4057da:	e8 31 ca ff ff       	call   402210 <__errno_location@plt>
  4057df:	4c 8b 44 24 18       	mov    r8,QWORD PTR [rsp+0x18]
  4057e4:	89 28                	mov    DWORD PTR [rax],ebp
  4057e6:	eb c8                	jmp    4057b0 <__libm_error_support+0x170>
  4057e8:	48 83 e5 f0          	and    rbp,0xfffffffffffffff0
  4057ec:	48 c1 e5 08          	shl    rbp,0x8
  4057f0:	48 81 cd 76 03 00 00 	or     rbp,0x376
  4057f7:	49 89 ec             	mov    r12,rbp
  4057fa:	eb b4                	jmp    4057b0 <__libm_error_support+0x170>
  4057fc:	49 0f be 40 08       	movsx  rax,BYTE PTR [r8+0x8]
  405801:	89 c1                	mov    ecx,eax
  405803:	49 8d 14 4f          	lea    rdx,[r15+rcx*2]
  405807:	48 83 c2 fe          	add    rdx,0xfffffffffffffffe
  40580b:	48 39 da             	cmp    rdx,rbx
  40580e:	0f 82 3e 02 00 00    	jb     405a52 <__libm_error_support+0x412>
  405814:	48 8d 14 4b          	lea    rdx,[rbx+rcx*2]
  405818:	48 83 c2 fe          	add    rdx,0xfffffffffffffffe
  40581c:	4c 39 fa             	cmp    rdx,r15
  40581f:	0f 82 2d 02 00 00    	jb     405a52 <__libm_error_support+0x412>
  405825:	31 c0                	xor    eax,eax
  405827:	66 0f 1f 84 00 00 00 	nop    WORD PTR [rax+rax*1+0x0]
  40582e:	00 00 
  405830:	41 0f b7 14 47       	movzx  edx,WORD PTR [r15+rax*2]
  405835:	66 89 14 43          	mov    WORD PTR [rbx+rax*2],dx
  405839:	48 ff c0             	inc    rax
  40583c:	48 39 c1             	cmp    rcx,rax
  40583f:	75 ef                	jne    405830 <__libm_error_support+0x1f0>
  405841:	e9 6a ff ff ff       	jmp    4057b0 <__libm_error_support+0x170>
  405846:	48 89 d8             	mov    rax,rbx
  405849:	48 89 5c 24 20       	mov    QWORD PTR [rsp+0x20],rbx
  40584e:	e9 5d ff ff ff       	jmp    4057b0 <__libm_error_support+0x170>
  405853:	49 63 40 10          	movsxd rax,DWORD PTR [r8+0x10]
  405857:	48 8b 4c 24 20       	mov    rcx,QWORD PTR [rsp+0x20]
  40585c:	0f b7 04 41          	movzx  eax,WORD PTR [rcx+rax*2]
  405860:	c1 e8 0f             	shr    eax,0xf
  405863:	8b 4c 24 0c          	mov    ecx,DWORD PTR [rsp+0xc]
  405867:	09 c1                	or     ecx,eax
  405869:	89 4c 24 0c          	mov    DWORD PTR [rsp+0xc],ecx
  40586d:	31 4c 24 14          	xor    DWORD PTR [rsp+0x14],ecx
  405871:	e9 3a ff ff ff       	jmp    4057b0 <__libm_error_support+0x170>
  405876:	41 0f be 40 08       	movsx  eax,BYTE PTR [r8+0x8]
  40587b:	8b 4c 24 14          	mov    ecx,DWORD PTR [rsp+0x14]
  40587f:	0f af c8             	imul   ecx,eax
  405882:	49 0f be 50 0a       	movsx  rdx,BYTE PTR [r8+0xa]
  405887:	66 83 7c 24 38 03    	cmp    WORD PTR [rsp+0x38],0x3
  40588d:	75 34                	jne    4058c3 <__libm_error_support+0x283>
  40588f:	48 89 c6             	mov    rsi,rax
  405892:	48 c1 ee 03          	shr    rsi,0x3
  405896:	48 63 f9             	movsxd rdi,ecx
  405899:	48 01 d7             	add    rdi,rdx
  40589c:	48 8d 2d 7d 17 01 00 	lea    rbp,[rip+0x1177d]        # 417020 <__libm_key_value>
  4058a3:	48 8d 3c 7d 00 00 00 	lea    rdi,[rdi*2+0x0]
  4058aa:	00 
  4058ab:	48 01 ef             	add    rdi,rbp
  4058ae:	31 ed                	xor    ebp,ebp
  4058b0:	f3 0f 6f 04 2f       	movdqu xmm0,XMMWORD PTR [rdi+rbp*1]
  4058b5:	f3 0f 7f 04 2b       	movdqu XMMWORD PTR [rbx+rbp*1],xmm0
  4058ba:	48 83 c5 10          	add    rbp,0x10
  4058be:	48 ff ce             	dec    rsi
  4058c1:	75 ed                	jne    4058b0 <__libm_error_support+0x270>
  4058c3:	89 c6                	mov    esi,eax
  4058c5:	83 e6 07             	and    esi,0x7
  4058c8:	48 ff ce             	dec    rsi
  4058cb:	48 83 fe 06          	cmp    rsi,0x6
  4058cf:	0f 87 db fe ff ff    	ja     4057b0 <__libm_error_support+0x170>
  4058d5:	83 e0 f8             	and    eax,0xfffffff8
  4058d8:	48 8d 3d 69 16 01 00 	lea    rdi,[rip+0x11669]        # 416f48 <ONE+0x98>
  4058df:	48 63 34 b7          	movsxd rsi,DWORD PTR [rdi+rsi*4]
  4058e3:	48 01 fe             	add    rsi,rdi
  4058e6:	3e ff e6             	ds jmp rsi
  4058e9:	48 63 c9             	movsxd rcx,ecx
  4058ec:	48 01 d1             	add    rcx,rdx
  4058ef:	48 01 c1             	add    rcx,rax
  4058f2:	48 8d 35 27 17 01 00 	lea    rsi,[rip+0x11727]        # 417020 <__libm_key_value>
  4058f9:	e9 5f 03 00 00       	jmp    405c5d <__libm_error_support+0x61d>
  4058fe:	48 8b 03             	mov    rax,QWORD PTR [rbx]
  405901:	41 8a 48 0c          	mov    cl,BYTE PTR [r8+0xc]
  405905:	48 d3 e0             	shl    rax,cl
  405908:	48 83 e5 f0          	and    rbp,0xfffffffffffffff0
  40590c:	48 83 cd 01          	or     rbp,0x1
  405910:	48 85 c0             	test   rax,rax
  405913:	4c 0f 44 e5          	cmove  r12,rbp
  405917:	8b 44 24 10          	mov    eax,DWORD PTR [rsp+0x10]
  40591b:	b9 00 00 00 00       	mov    ecx,0x0
  405920:	0f 44 c1             	cmove  eax,ecx
  405923:	89 44 24 10          	mov    DWORD PTR [rsp+0x10],eax
  405927:	e9 84 fe ff ff       	jmp    4057b0 <__libm_error_support+0x170>
  40592c:	41 8b 40 08          	mov    eax,DWORD PTR [r8+0x8]
  405930:	3c 02                	cmp    al,0x2
  405932:	b9 01 00 00 00       	mov    ecx,0x1
  405937:	0f 4c c1             	cmovl  eax,ecx
  40593a:	0f b6 c8             	movzx  ecx,al
  40593d:	3c 08                	cmp    al,0x8
  40593f:	0f 83 b6 01 00 00    	jae    405afb <__libm_error_support+0x4bb>
  405945:	31 c0                	xor    eax,eax
  405947:	e9 f6 01 00 00       	jmp    405b42 <__libm_error_support+0x502>
  40594c:	4c 89 f8             	mov    rax,r15
  40594f:	4c 89 7c 24 20       	mov    QWORD PTR [rsp+0x20],r15
  405954:	e9 57 fe ff ff       	jmp    4057b0 <__libm_error_support+0x170>
  405959:	48 8b 44 24 30       	mov    rax,QWORD PTR [rsp+0x30]
  40595e:	48 8d 0d 3b 85 23 00 	lea    rcx,[rip+0x23853b]        # 63dea0 <__libm_func_names>
  405965:	4c 8b 0c c1          	mov    r9,QWORD PTR [rcx+rax*8]
  405969:	49 8b 00             	mov    rax,QWORD PTR [r8]
  40596c:	48 89 04 24          	mov    QWORD PTR [rsp],rax
  405970:	be 14 00 00 00       	mov    esi,0x14
  405975:	b9 14 00 00 00       	mov    ecx,0x14
  40597a:	4c 8d ac 24 b0 00 00 	lea    r13,[rsp+0xb0]
  405981:	00 
  405982:	4c 89 ef             	mov    rdi,r13
  405985:	ba 01 00 00 00       	mov    edx,0x1
  40598a:	4c 8d 05 8e 1f 01 00 	lea    r8,[rip+0x11f8e]        # 41791f <__libm_err_response_table+0xcf>
  405991:	31 c0                	xor    eax,eax
  405993:	e8 b8 c8 ff ff       	call   402250 <__snprintf_chk@plt>
  405998:	48 8b 74 24 18       	mov    rsi,QWORD PTR [rsp+0x18]
  40599d:	48 8b 44 24 48       	mov    rax,QWORD PTR [rsp+0x48]
  4059a2:	89 44 24 70          	mov    DWORD PTR [rsp+0x70],eax
  4059a6:	4c 89 6c 24 78       	mov    QWORD PTR [rsp+0x78],r13
  4059ab:	48 0f be 46 08       	movsx  rax,BYTE PTR [rsi+0x8]
  4059b0:	89 c0                	mov    eax,eax
  4059b2:	31 c9                	xor    ecx,ecx
  4059b4:	66 66 66 2e 0f 1f 84 	data16 data16 nop WORD PTR cs:[rax+rax*1+0x0]
  4059bb:	00 00 00 00 00 
  4059c0:	41 0f b7 14 4f       	movzx  edx,WORD PTR [r15+rcx*2]
  4059c5:	66 89 94 4c 80 00 00 	mov    WORD PTR [rsp+rcx*2+0x80],dx
  4059cc:	00 
  4059cd:	48 ff c1             	inc    rcx
  4059d0:	48 39 c8             	cmp    rax,rcx
  4059d3:	75 eb                	jne    4059c0 <__libm_error_support+0x380>
  4059d5:	48 0f be 4e 09       	movsx  rcx,BYTE PTR [rsi+0x9]
  4059da:	48 8d 94 24 80 00 00 	lea    rdx,[rsp+0x80]
  4059e1:	00 
  4059e2:	48 8d 14 4a          	lea    rdx,[rdx+rcx*2]
  4059e6:	31 f6                	xor    esi,esi
  4059e8:	0f 1f 84 00 00 00 00 	nop    DWORD PTR [rax+rax*1+0x0]
  4059ef:	00 
  4059f0:	41 0f b7 3c 76       	movzx  edi,WORD PTR [r14+rsi*2]
  4059f5:	66 89 3c 72          	mov    WORD PTR [rdx+rsi*2],di
  4059f9:	48 ff c6             	inc    rsi
  4059fc:	48 39 f0             	cmp    rax,rsi
  4059ff:	75 ef                	jne    4059f0 <__libm_error_support+0x3b0>
  405a01:	48 8d 94 24 80 00 00 	lea    rdx,[rsp+0x80]
  405a08:	00 
  405a09:	48 8d 0c 8a          	lea    rcx,[rdx+rcx*4]
  405a0d:	31 d2                	xor    edx,edx
  405a0f:	4c 8d 2d c6 14 01 00 	lea    r13,[rip+0x114c6]        # 416edc <ONE+0x2c>
  405a16:	66 2e 0f 1f 84 00 00 	nop    WORD PTR cs:[rax+rax*1+0x0]
  405a1d:	00 00 00 
  405a20:	0f b7 34 53          	movzx  esi,WORD PTR [rbx+rdx*2]
  405a24:	66 89 34 51          	mov    WORD PTR [rcx+rdx*2],si
  405a28:	48 ff c2             	inc    rdx
  405a2b:	48 39 d0             	cmp    rax,rdx
  405a2e:	75 f0                	jne    405a20 <__libm_error_support+0x3e0>
  405a30:	48 8d 7c 24 70       	lea    rdi,[rsp+0x70]
  405a35:	48 8b 44 24 38       	mov    rax,QWORD PTR [rsp+0x38]
  405a3a:	ff 54 c4 50          	call   QWORD PTR [rsp+rax*8+0x50]
  405a3e:	48 83 e5 f0          	and    rbp,0xfffffffffffffff0
  405a42:	85 c0                	test   eax,eax
  405a44:	4c 0f 45 e5          	cmovne r12,rbp
  405a48:	4c 8b 44 24 18       	mov    r8,QWORD PTR [rsp+0x18]
  405a4d:	e9 5e fd ff ff       	jmp    4057b0 <__libm_error_support+0x170>
  405a52:	83 f9 08             	cmp    ecx,0x8
  405a55:	72 2d                	jb     405a84 <__libm_error_support+0x444>
  405a57:	48 8d 14 09          	lea    rdx,[rcx+rcx*1]
  405a5b:	48 83 e2 f0          	and    rdx,0xfffffffffffffff0
  405a5f:	31 f6                	xor    esi,esi
  405a61:	66 66 66 66 66 66 2e 	data16 data16 data16 data16 data16 nop WORD PTR cs:[rax+rax*1+0x0]
  405a68:	0f 1f 84 00 00 00 00 
  405a6f:	00 
  405a70:	f3 41 0f 6f 04 37    	movdqu xmm0,XMMWORD PTR [r15+rsi*1]
  405a76:	f3 0f 7f 04 33       	movdqu XMMWORD PTR [rbx+rsi*1],xmm0
  405a7b:	48 83 c6 10          	add    rsi,0x10
  405a7f:	48 39 f2             	cmp    rdx,rsi
  405a82:	75 ec                	jne    405a70 <__libm_error_support+0x430>
  405a84:	83 e0 f8             	and    eax,0xfffffff8
  405a87:	48 89 c2             	mov    rdx,rax
  405a8a:	48 f7 d2             	not    rdx
  405a8d:	48 01 d1             	add    rcx,rdx
  405a90:	48 83 f9 06          	cmp    rcx,0x6
  405a94:	0f 87 16 fd ff ff    	ja     4057b0 <__libm_error_support+0x170>
  405a9a:	48 8d 15 8b 14 01 00 	lea    rdx,[rip+0x1148b]        # 416f2c <ONE+0x7c>
  405aa1:	48 63 0c 8a          	movsxd rcx,DWORD PTR [rdx+rcx*4]
  405aa5:	48 01 d1             	add    rcx,rdx
  405aa8:	3e ff e1             	ds jmp rcx
  405aab:	41 0f b7 4c 47 0c    	movzx  ecx,WORD PTR [r15+rax*2+0xc]
  405ab1:	66 89 4c 43 0c       	mov    WORD PTR [rbx+rax*2+0xc],cx
  405ab6:	41 0f b7 4c 47 0a    	movzx  ecx,WORD PTR [r15+rax*2+0xa]
  405abc:	66 89 4c 43 0a       	mov    WORD PTR [rbx+rax*2+0xa],cx
  405ac1:	41 0f b7 4c 47 08    	movzx  ecx,WORD PTR [r15+rax*2+0x8]
  405ac7:	66 89 4c 43 08       	mov    WORD PTR [rbx+rax*2+0x8],cx
  405acc:	41 0f b7 4c 47 06    	movzx  ecx,WORD PTR [r15+rax*2+0x6]
  405ad2:	66 89 4c 43 06       	mov    WORD PTR [rbx+rax*2+0x6],cx
  405ad7:	41 0f b7 4c 47 04    	movzx  ecx,WORD PTR [r15+rax*2+0x4]
  405add:	66 89 4c 43 04       	mov    WORD PTR [rbx+rax*2+0x4],cx
  405ae2:	41 0f b7 4c 47 02    	movzx  ecx,WORD PTR [r15+rax*2+0x2]
  405ae8:	66 89 4c 43 02       	mov    WORD PTR [rbx+rax*2+0x2],cx
  405aed:	41 0f b7 0c 47       	movzx  ecx,WORD PTR [r15+rax*2]
  405af2:	66 89 0c 43          	mov    WORD PTR [rbx+rax*2],cx
  405af6:	e9 b5 fc ff ff       	jmp    4057b0 <__libm_error_support+0x170>
  405afb:	48 89 ca             	mov    rdx,rcx
  405afe:	48 c1 ea 03          	shr    rdx,0x3
  405b02:	31 c0                	xor    eax,eax
  405b04:	4c 89 fe             	mov    rsi,r15
  405b07:	66 0f 1f 84 00 00 00 	nop    WORD PTR [rax+rax*1+0x0]
  405b0e:	00 00 
  405b10:	f3 0f 6f 06          	movdqu xmm0,XMMWORD PTR [rsi]
  405b14:	66 0f 70 c8 ee       	pshufd xmm1,xmm0,0xee
  405b19:	66 0f eb c8          	por    xmm1,xmm0
  405b1d:	66 0f 70 c1 55       	pshufd xmm0,xmm1,0x55
  405b22:	66 0f eb c1          	por    xmm0,xmm1
  405b26:	66 0f 6f c8          	movdqa xmm1,xmm0
  405b2a:	66 0f 72 d1 10       	psrld  xmm1,0x10
  405b2f:	66 0f eb c8          	por    xmm1,xmm0
  405b33:	66 0f 7e cf          	movd   edi,xmm1
  405b37:	09 f8                	or     eax,edi
  405b39:	48 83 c6 10          	add    rsi,0x10
  405b3d:	48 ff ca             	dec    rdx
  405b40:	75 ce                	jne    405b10 <__libm_error_support+0x4d0>
  405b42:	89 ca                	mov    edx,ecx
  405b44:	83 e2 07             	and    edx,0x7
  405b47:	48 ff ca             	dec    rdx
  405b4a:	48 83 fa 06          	cmp    rdx,0x6
  405b4e:	77 3d                	ja     405b8d <__libm_error_support+0x54d>
  405b50:	83 e1 78             	and    ecx,0x78
  405b53:	48 8d 35 b6 13 01 00 	lea    rsi,[rip+0x113b6]        # 416f10 <ONE+0x60>
  405b5a:	48 63 14 96          	movsxd rdx,DWORD PTR [rsi+rdx*4]
  405b5e:	48 01 f2             	add    rdx,rsi
  405b61:	3e ff e2             	ds jmp rdx
  405b64:	66 41 0b 44 4f 0c    	or     ax,WORD PTR [r15+rcx*2+0xc]
  405b6a:	66 41 0b 44 4f 0a    	or     ax,WORD PTR [r15+rcx*2+0xa]
  405b70:	66 41 0b 44 4f 08    	or     ax,WORD PTR [r15+rcx*2+0x8]
  405b76:	66 41 0b 44 4f 06    	or     ax,WORD PTR [r15+rcx*2+0x6]
  405b7c:	66 41 0b 44 4f 04    	or     ax,WORD PTR [r15+rcx*2+0x4]
  405b82:	66 41 0b 44 4f 02    	or     ax,WORD PTR [r15+rcx*2+0x2]
  405b88:	66 41 0b 04 4f       	or     ax,WORD PTR [r15+rcx*2]
  405b8d:	8b 4c 24 0c          	mov    ecx,DWORD PTR [rsp+0xc]
  405b91:	66 85 c0             	test   ax,ax
  405b94:	b8 01 00 00 00       	mov    eax,0x1
  405b99:	0f 44 c8             	cmove  ecx,eax
  405b9c:	89 4c 24 0c          	mov    DWORD PTR [rsp+0xc],ecx
  405ba0:	48 83 e5 f0          	and    rbp,0xfffffffffffffff0
  405ba4:	48 c1 e5 08          	shl    rbp,0x8
  405ba8:	48 81 cd 75 03 00 00 	or     rbp,0x375
  405baf:	49 89 ec             	mov    r12,rbp
  405bb2:	e9 f9 fb ff ff       	jmp    4057b0 <__libm_error_support+0x170>
  405bb7:	48 63 c9             	movsxd rcx,ecx
  405bba:	48 01 d1             	add    rcx,rdx
  405bbd:	48 01 c1             	add    rcx,rax
  405bc0:	48 8d 35 59 14 01 00 	lea    rsi,[rip+0x11459]        # 417020 <__libm_key_value>
  405bc7:	eb 6c                	jmp    405c35 <__libm_error_support+0x5f5>
  405bc9:	48 63 c9             	movsxd rcx,ecx
  405bcc:	48 01 d1             	add    rcx,rdx
  405bcf:	48 01 c1             	add    rcx,rax
  405bd2:	48 8d 35 47 14 01 00 	lea    rsi,[rip+0x11447]        # 417020 <__libm_key_value>
  405bd9:	eb 6e                	jmp    405c49 <__libm_error_support+0x609>
  405bdb:	48 63 c9             	movsxd rcx,ecx
  405bde:	48 01 d1             	add    rcx,rdx
  405be1:	48 01 c1             	add    rcx,rax
  405be4:	48 8d 35 35 14 01 00 	lea    rsi,[rip+0x11435]        # 417020 <__libm_key_value>
  405beb:	eb 52                	jmp    405c3f <__libm_error_support+0x5ff>
  405bed:	48 63 c9             	movsxd rcx,ecx
  405bf0:	48 01 d1             	add    rcx,rdx
  405bf3:	48 01 c1             	add    rcx,rax
  405bf6:	48 8d 35 23 14 01 00 	lea    rsi,[rip+0x11423]        # 417020 <__libm_key_value>
  405bfd:	eb 54                	jmp    405c53 <__libm_error_support+0x613>
  405bff:	48 63 c9             	movsxd rcx,ecx
  405c02:	48 01 d1             	add    rcx,rdx
  405c05:	48 01 c1             	add    rcx,rax
  405c08:	48 8d 35 11 14 01 00 	lea    rsi,[rip+0x11411]        # 417020 <__libm_key_value>
  405c0f:	eb 1a                	jmp    405c2b <__libm_error_support+0x5eb>
  405c11:	48 63 c9             	movsxd rcx,ecx
  405c14:	48 01 d1             	add    rcx,rdx
  405c17:	48 01 c1             	add    rcx,rax
  405c1a:	48 8d 35 ff 13 01 00 	lea    rsi,[rip+0x113ff]        # 417020 <__libm_key_value>
  405c21:	0f b7 54 4e 0c       	movzx  edx,WORD PTR [rsi+rcx*2+0xc]
  405c26:	66 89 54 43 0c       	mov    WORD PTR [rbx+rax*2+0xc],dx
  405c2b:	0f b7 54 4e 0a       	movzx  edx,WORD PTR [rsi+rcx*2+0xa]
  405c30:	66 89 54 43 0a       	mov    WORD PTR [rbx+rax*2+0xa],dx
  405c35:	0f b7 54 4e 08       	movzx  edx,WORD PTR [rsi+rcx*2+0x8]
  405c3a:	66 89 54 43 08       	mov    WORD PTR [rbx+rax*2+0x8],dx
  405c3f:	0f b7 54 4e 06       	movzx  edx,WORD PTR [rsi+rcx*2+0x6]
  405c44:	66 89 54 43 06       	mov    WORD PTR [rbx+rax*2+0x6],dx
  405c49:	0f b7 54 4e 04       	movzx  edx,WORD PTR [rsi+rcx*2+0x4]
  405c4e:	66 89 54 43 04       	mov    WORD PTR [rbx+rax*2+0x4],dx
  405c53:	0f b7 54 4e 02       	movzx  edx,WORD PTR [rsi+rcx*2+0x2]
  405c58:	66 89 54 43 02       	mov    WORD PTR [rbx+rax*2+0x2],dx
  405c5d:	0f b7 0c 4e          	movzx  ecx,WORD PTR [rsi+rcx*2]
  405c61:	66 89 0c 43          	mov    WORD PTR [rbx+rax*2],cx
  405c65:	e9 46 fb ff ff       	jmp    4057b0 <__libm_error_support+0x170>
  405c6a:	64 48 8b 04 25 28 00 	mov    rax,QWORD PTR fs:0x28
  405c71:	00 00 
  405c73:	48 3b 84 24 d0 00 00 	cmp    rax,QWORD PTR [rsp+0xd0]
  405c7a:	00 
  405c7b:	75 12                	jne    405c8f <__libm_error_support+0x64f>
  405c7d:	48 81 c4 d8 00 00 00 	add    rsp,0xd8
  405c84:	5b                   	pop    rbx
  405c85:	41 5c                	pop    r12
  405c87:	41 5d                	pop    r13
  405c89:	41 5e                	pop    r14
  405c8b:	41 5f                	pop    r15
  405c8d:	5d                   	pop    rbp
  405c8e:	c3                   	ret    
  405c8f:	e8 4c c4 ff ff       	call   4020e0 <__stack_chk_fail@plt>
  405c94:	66 66 66 2e 0f 1f 84 	data16 data16 nop WORD PTR cs:[rax+rax*1+0x0]
  405c9b:	00 00 00 00 00 

0000000000405ca0 <write_message>:
  405ca0:	55                   	push   rbp
  405ca1:	41 56                	push   r14
  405ca3:	53                   	push   rbx
  405ca4:	48 81 ec e0 02 00 00 	sub    rsp,0x2e0
  405cab:	48 89 74 24 28       	mov    QWORD PTR [rsp+0x28],rsi
  405cb0:	48 89 54 24 30       	mov    QWORD PTR [rsp+0x30],rdx
  405cb5:	48 89 4c 24 38       	mov    QWORD PTR [rsp+0x38],rcx
  405cba:	4c 89 44 24 40       	mov    QWORD PTR [rsp+0x40],r8
  405cbf:	4c 89 4c 24 48       	mov    QWORD PTR [rsp+0x48],r9
  405cc4:	84 c0                	test   al,al
  405cc6:	74 37                	je     405cff <write_message+0x5f>
  405cc8:	0f 29 44 24 50       	movaps XMMWORD PTR [rsp+0x50],xmm0
  405ccd:	0f 29 4c 24 60       	movaps XMMWORD PTR [rsp+0x60],xmm1
  405cd2:	0f 29 54 24 70       	movaps XMMWORD PTR [rsp+0x70],xmm2
  405cd7:	0f 29 9c 24 80 00 00 	movaps XMMWORD PTR [rsp+0x80],xmm3
  405cde:	00 
  405cdf:	0f 29 a4 24 90 00 00 	movaps XMMWORD PTR [rsp+0x90],xmm4
  405ce6:	00 
  405ce7:	0f 29 ac 24 a0 00 00 	movaps XMMWORD PTR [rsp+0xa0],xmm5
  405cee:	00 
  405cef:	0f 29 b4 24 b0 00 00 	movaps XMMWORD PTR [rsp+0xb0],xmm6
  405cf6:	00 
  405cf7:	0f 29 bc 24 c0 00 00 	movaps XMMWORD PTR [rsp+0xc0],xmm7
  405cfe:	00 
  405cff:	64 48 8b 04 25 28 00 	mov    rax,QWORD PTR fs:0x28
  405d06:	00 00 
  405d08:	48 89 84 24 d8 02 00 	mov    QWORD PTR [rsp+0x2d8],rax
  405d0f:	00 
  405d10:	89 f8                	mov    eax,edi
  405d12:	48 8d 0d 47 85 23 00 	lea    rcx,[rip+0x238547]        # 63e260 <__libm_message_table>
  405d19:	48 8b 1c c1          	mov    rbx,QWORD PTR [rcx+rax*8]
  405d1d:	80 3d e4 9d 24 00 00 	cmp    BYTE PTR [rip+0x249de4],0x0        # 64fb08 <use_message_catalog>
  405d24:	75 42                	jne    405d68 <write_message+0xc8>
  405d26:	89 fd                	mov    ebp,edi
  405d28:	48 8b 3d e1 9d 24 00 	mov    rdi,QWORD PTR [rip+0x249de1]        # 64fb10 <message_catalog>
  405d2f:	48 85 ff             	test   rdi,rdi
  405d32:	75 22                	jne    405d56 <write_message+0xb6>
  405d34:	48 8d 3d 66 1c 01 00 	lea    rdi,[rip+0x11c66]        # 4179a1 <__libm_err_response_table+0x151>
  405d3b:	31 f6                	xor    esi,esi
  405d3d:	e8 ee c4 ff ff       	call   402230 <catopen@plt>
  405d42:	48 89 c7             	mov    rdi,rax
  405d45:	48 89 05 c4 9d 24 00 	mov    QWORD PTR [rip+0x249dc4],rax        # 64fb10 <message_catalog>
  405d4c:	48 83 f8 ff          	cmp    rax,0xffffffffffffffff
  405d50:	0f 84 91 00 00 00    	je     405de7 <write_message+0x147>
  405d56:	be 01 00 00 00       	mov    esi,0x1
  405d5b:	89 ea                	mov    edx,ebp
  405d5d:	48 89 d9             	mov    rcx,rbx
  405d60:	e8 5b c4 ff ff       	call   4021c0 <catgets@plt>
  405d65:	48 89 c3             	mov    rbx,rax
  405d68:	48 8d 44 24 20       	lea    rax,[rsp+0x20]
  405d6d:	48 89 44 24 10       	mov    QWORD PTR [rsp+0x10],rax
  405d72:	48 8d 84 24 00 03 00 	lea    rax,[rsp+0x300]
  405d79:	00 
  405d7a:	48 89 44 24 08       	mov    QWORD PTR [rsp+0x8],rax
  405d7f:	48 b8 08 00 00 00 30 	movabs rax,0x3000000008
  405d86:	00 00 00 
  405d89:	48 89 04 24          	mov    QWORD PTR [rsp],rax
  405d8d:	48 8d ac 24 d0 00 00 	lea    rbp,[rsp+0xd0]
  405d94:	00 
  405d95:	49 89 e1             	mov    r9,rsp
  405d98:	be 00 02 00 00       	mov    esi,0x200
  405d9d:	b9 00 02 00 00       	mov    ecx,0x200
  405da2:	48 89 ef             	mov    rdi,rbp
  405da5:	ba 01 00 00 00       	mov    edx,0x1
  405daa:	49 89 d8             	mov    r8,rbx
  405dad:	e8 0e c3 ff ff       	call   4020c0 <__vsnprintf_chk@plt>
  405db2:	48 8b 05 37 92 23 00 	mov    rax,QWORD PTR [rip+0x239237]        # 63eff0 <stderr@GLIBC_2.2.5>
  405db9:	48 8b 30             	mov    rsi,QWORD PTR [rax]
  405dbc:	48 89 ef             	mov    rdi,rbp
  405dbf:	e8 4c c3 ff ff       	call   402110 <fputs@plt>
  405dc4:	64 48 8b 04 25 28 00 	mov    rax,QWORD PTR fs:0x28
  405dcb:	00 00 
  405dcd:	48 3b 84 24 d8 02 00 	cmp    rax,QWORD PTR [rsp+0x2d8]
  405dd4:	00 
  405dd5:	0f 85 ed 00 00 00    	jne    405ec8 <write_message+0x228>
  405ddb:	48 81 c4 e0 02 00 00 	add    rsp,0x2e0
  405de2:	5b                   	pop    rbx
  405de3:	41 5e                	pop    r14
  405de5:	5d                   	pop    rbp
  405de6:	c3                   	ret    
  405de7:	48 8d 3d bc 1b 01 00 	lea    rdi,[rip+0x11bbc]        # 4179aa <__libm_err_response_table+0x15a>
  405dee:	e8 bd c3 ff ff       	call   4021b0 <getenv@plt>
  405df3:	4c 8d b4 24 d0 00 00 	lea    r14,[rsp+0xd0]
  405dfa:	00 
  405dfb:	ba 00 02 00 00       	mov    edx,0x200
  405e00:	b9 00 02 00 00       	mov    ecx,0x200
  405e05:	4c 89 f7             	mov    rdi,r14
  405e08:	48 89 c6             	mov    rsi,rax
  405e0b:	e8 10 c3 ff ff       	call   402120 <__strncpy_chk@plt>
  405e10:	4c 89 f7             	mov    rdi,r14
  405e13:	be 2e 00 00 00       	mov    esi,0x2e
  405e18:	e8 43 c3 ff ff       	call   402160 <strchr@plt>
  405e1d:	48 85 c0             	test   rax,rax
  405e20:	0f 84 96 00 00 00    	je     405ebc <write_message+0x21c>
  405e26:	c6 00 00             	mov    BYTE PTR [rax],0x0
  405e29:	48 8d 3d 7a 1b 01 00 	lea    rdi,[rip+0x11b7a]        # 4179aa <__libm_err_response_table+0x15a>
  405e30:	48 8d b4 24 d0 00 00 	lea    rsi,[rsp+0xd0]
  405e37:	00 
  405e38:	ba 01 00 00 00       	mov    edx,0x1
  405e3d:	e8 2e c3 ff ff       	call   402170 <setenv@plt>
  405e42:	48 8d 3d 58 1b 01 00 	lea    rdi,[rip+0x11b58]        # 4179a1 <__libm_err_response_table+0x151>
  405e49:	31 f6                	xor    esi,esi
  405e4b:	e8 e0 c3 ff ff       	call   402230 <catopen@plt>
  405e50:	48 89 c7             	mov    rdi,rax
  405e53:	48 89 05 b6 9c 24 00 	mov    QWORD PTR [rip+0x249cb6],rax        # 64fb10 <message_catalog>
  405e5a:	48 83 f8 ff          	cmp    rax,0xffffffffffffffff
  405e5e:	0f 85 f2 fe ff ff    	jne    405d56 <write_message+0xb6>
  405e64:	4c 8d 05 44 1b 01 00 	lea    r8,[rip+0x11b44]        # 4179af <__libm_err_response_table+0x15f>
  405e6b:	4c 8d 0d 2f 1b 01 00 	lea    r9,[rip+0x11b2f]        # 4179a1 <__libm_err_response_table+0x151>
  405e72:	48 8d ac 24 d0 00 00 	lea    rbp,[rsp+0xd0]
  405e79:	00 
  405e7a:	be 00 02 00 00       	mov    esi,0x200
  405e7f:	b9 00 02 00 00       	mov    ecx,0x200
  405e84:	48 89 ef             	mov    rdi,rbp
  405e87:	ba 01 00 00 00       	mov    edx,0x1
  405e8c:	31 c0                	xor    eax,eax
  405e8e:	e8 bd c3 ff ff       	call   402250 <__snprintf_chk@plt>
  405e93:	48 8b 05 56 91 23 00 	mov    rax,QWORD PTR [rip+0x239156]        # 63eff0 <stderr@GLIBC_2.2.5>
  405e9a:	48 8b 30             	mov    rsi,QWORD PTR [rax]
  405e9d:	48 89 ef             	mov    rdi,rbp
  405ea0:	e8 6b c2 ff ff       	call   402110 <fputs@plt>
  405ea5:	48 c7 05 60 9c 24 00 	mov    QWORD PTR [rip+0x249c60],0x0        # 64fb10 <message_catalog>
  405eac:	00 00 00 00 
  405eb0:	c6 05 51 9c 24 00 01 	mov    BYTE PTR [rip+0x249c51],0x1        # 64fb08 <use_message_catalog>
  405eb7:	e9 ac fe ff ff       	jmp    405d68 <write_message+0xc8>
  405ebc:	48 8b 3d 4d 9c 24 00 	mov    rdi,QWORD PTR [rip+0x249c4d]        # 64fb10 <message_catalog>
  405ec3:	e9 8e fe ff ff       	jmp    405d56 <write_message+0xb6>
  405ec8:	e8 13 c2 ff ff       	call   4020e0 <__stack_chk_fail@plt>
  405ecd:	0f 1f 00             	nop    DWORD PTR [rax]

0000000000405ed0 <__libm_error_support_wrapper_x64f>:
  405ed0:	f3 0f 1e fa          	repz nop edx
  405ed4:	48 83 ec 18          	sub    rsp,0x18
  405ed8:	f3 0f 11 44 24 0c    	movss  DWORD PTR [rsp+0xc],xmm0
  405ede:	f3 0f 11 4c 24 14    	movss  DWORD PTR [rsp+0x14],xmm1
  405ee4:	f3 0f 11 54 24 10    	movss  DWORD PTR [rsp+0x10],xmm2
  405eea:	66 0f 7e d9          	movd   ecx,xmm3
  405eee:	48 8d 7c 24 14       	lea    rdi,[rsp+0x14]
  405ef3:	48 8d 74 24 10       	lea    rsi,[rsp+0x10]
  405ef8:	48 8d 54 24 0c       	lea    rdx,[rsp+0xc]
  405efd:	e8 3e f7 ff ff       	call   405640 <__libm_error_support>
  405f02:	f3 0f 10 44 24 0c    	movss  xmm0,DWORD PTR [rsp+0xc]
  405f08:	48 83 c4 18          	add    rsp,0x18
  405f0c:	c3                   	ret    
  405f0d:	0f 1f 00             	nop    DWORD PTR [rax]

0000000000405f10 <__libm_error_support_wrapper_x64>:
  405f10:	f3 0f 1e fa          	repz nop edx
  405f14:	48 83 ec 18          	sub    rsp,0x18
  405f18:	f2 0f 11 04 24       	movsd  QWORD PTR [rsp],xmm0
  405f1d:	f2 0f 11 4c 24 10    	movsd  QWORD PTR [rsp+0x10],xmm1
  405f23:	f2 0f 11 54 24 08    	movsd  QWORD PTR [rsp+0x8],xmm2
  405f29:	66 48 0f 7e d9       	movq   rcx,xmm3
  405f2e:	48 8d 7c 24 10       	lea    rdi,[rsp+0x10]
  405f33:	48 8d 74 24 08       	lea    rsi,[rsp+0x8]
  405f38:	48 89 e2             	mov    rdx,rsp
  405f3b:	e8 00 f7 ff ff       	call   405640 <__libm_error_support>
  405f40:	f2 0f 10 04 24       	movsd  xmm0,QWORD PTR [rsp]
  405f45:	48 83 c4 18          	add    rsp,0x18
  405f49:	c3                   	ret    
  405f4a:	66 0f 1f 44 00 00    	nop    WORD PTR [rax+rax*1+0x0]

0000000000405f50 <__libm_acos_dispatch_table_x_init>:
  405f50:	f3 0f 1e fa          	repz nop edx
  405f54:	53                   	push   rbx
  405f55:	48 83 ec 10          	sub    rsp,0x10
  405f59:	48 c7 c3 80 fb 64 00 	mov    rbx,0x64fb80
  405f60:	8b 03                	mov    eax,DWORD PTR [rbx]
  405f62:	85 c0                	test   eax,eax
  405f64:	75 13                	jne    405f79 <__libm_acos_dispatch_table_x_init+0x29>
  405f66:	f2 0f 11 44 24 08    	movsd  QWORD PTR [rsp+0x8],xmm0
  405f6c:	e8 5f 06 00 00       	call   4065d0 <__libm_feature_flag_x_init>
  405f71:	f2 0f 10 44 24 08    	movsd  xmm0,QWORD PTR [rsp+0x8]
  405f77:	eb e7                	jmp    405f60 <__libm_acos_dispatch_table_x_init+0x10>
  405f79:	48 98                	cdqe   
  405f7b:	48 8d 0d 3e 83 23 00 	lea    rcx,[rip+0x23833e]        # 63e2c0 <__libm_acos_dispatch_table_x>
  405f82:	48 8b 0c c1          	mov    rcx,QWORD PTR [rcx+rax*8]
  405f86:	48 c7 c2 40 f1 63 00 	mov    rdx,0x63f140
  405f8d:	31 c0                	xor    eax,eax
  405f8f:	f0 48 0f b1 0a       	lock cmpxchg QWORD PTR [rdx],rcx
  405f94:	48 8d 05 b5 ff ff ff 	lea    rax,[rip+0xffffffffffffffb5]        # 405f50 <__libm_acos_dispatch_table_x_init>
  405f9b:	f0 48 0f b1 0a       	lock cmpxchg QWORD PTR [rdx],rcx
  405fa0:	48 83 c4 10          	add    rsp,0x10
  405fa4:	5b                   	pop    rbx
  405fa5:	ff 22                	jmp    QWORD PTR [rdx]
  405fa7:	66 0f 1f 84 00 00 00 	nop    WORD PTR [rax+rax*1+0x0]
  405fae:	00 00 

0000000000405fb0 <__libm_acos>:
  405fb0:	f3 0f 1e fa          	repz nop edx
  405fb4:	48 c7 c0 40 f1 63 00 	mov    rax,0x63f140
  405fbb:	ff 20                	jmp    QWORD PTR [rax]
  405fbd:	0f 1f 00             	nop    DWORD PTR [rax]

0000000000405fc0 <__libm_atan2_dispatch_table_x_init>:
  405fc0:	f3 0f 1e fa          	repz nop edx
  405fc4:	53                   	push   rbx
  405fc5:	48 83 ec 10          	sub    rsp,0x10
  405fc9:	48 c7 c3 80 fb 64 00 	mov    rbx,0x64fb80
  405fd0:	8b 03                	mov    eax,DWORD PTR [rbx]
  405fd2:	85 c0                	test   eax,eax
  405fd4:	75 1d                	jne    405ff3 <__libm_atan2_dispatch_table_x_init+0x33>
  405fd6:	f2 0f 11 04 24       	movsd  QWORD PTR [rsp],xmm0
  405fdb:	f2 0f 11 4c 24 08    	movsd  QWORD PTR [rsp+0x8],xmm1
  405fe1:	e8 ea 05 00 00       	call   4065d0 <__libm_feature_flag_x_init>
  405fe6:	f2 0f 10 04 24       	movsd  xmm0,QWORD PTR [rsp]
  405feb:	f2 0f 10 4c 24 08    	movsd  xmm1,QWORD PTR [rsp+0x8]
  405ff1:	eb dd                	jmp    405fd0 <__libm_atan2_dispatch_table_x_init+0x10>
  405ff3:	48 98                	cdqe   
  405ff5:	48 8d 0d 44 83 23 00 	lea    rcx,[rip+0x238344]        # 63e340 <__libm_atan2_dispatch_table_x>
  405ffc:	48 8b 0c c1          	mov    rcx,QWORD PTR [rcx+rax*8]
  406000:	48 c7 c2 80 f1 63 00 	mov    rdx,0x63f180
  406007:	31 c0                	xor    eax,eax
  406009:	f0 48 0f b1 0a       	lock cmpxchg QWORD PTR [rdx],rcx
  40600e:	48 8d 05 ab ff ff ff 	lea    rax,[rip+0xffffffffffffffab]        # 405fc0 <__libm_atan2_dispatch_table_x_init>
  406015:	f0 48 0f b1 0a       	lock cmpxchg QWORD PTR [rdx],rcx
  40601a:	48 8b 02             	mov    rax,QWORD PTR [rdx]
  40601d:	48 83 c4 10          	add    rsp,0x10
  406021:	5b                   	pop    rbx
  406022:	ff e0                	jmp    rax
  406024:	66 66 66 2e 0f 1f 84 	data16 data16 nop WORD PTR cs:[rax+rax*1+0x0]
  40602b:	00 00 00 00 00 

0000000000406030 <__libm_atan2>:
  406030:	f3 0f 1e fa          	repz nop edx
  406034:	48 c7 c0 80 f1 63 00 	mov    rax,0x63f180
  40603b:	48 8b 00             	mov    rax,QWORD PTR [rax]
  40603e:	ff e0                	jmp    rax

0000000000406040 <__libm_ceil_dispatch_table_x_init>:
  406040:	f3 0f 1e fa          	repz nop edx
  406044:	53                   	push   rbx
  406045:	48 83 ec 10          	sub    rsp,0x10
  406049:	48 c7 c3 80 fb 64 00 	mov    rbx,0x64fb80
  406050:	8b 03                	mov    eax,DWORD PTR [rbx]
  406052:	85 c0                	test   eax,eax
  406054:	75 13                	jne    406069 <__libm_ceil_dispatch_table_x_init+0x29>
  406056:	f2 0f 11 44 24 08    	movsd  QWORD PTR [rsp+0x8],xmm0
  40605c:	e8 6f 05 00 00       	call   4065d0 <__libm_feature_flag_x_init>
  406061:	f2 0f 10 44 24 08    	movsd  xmm0,QWORD PTR [rsp+0x8]
  406067:	eb e7                	jmp    406050 <__libm_ceil_dispatch_table_x_init+0x10>
  406069:	48 98                	cdqe   
  40606b:	48 8d 0d 4e 83 23 00 	lea    rcx,[rip+0x23834e]        # 63e3c0 <__libm_ceil_dispatch_table_x>
  406072:	48 8b 0c c1          	mov    rcx,QWORD PTR [rcx+rax*8]
  406076:	48 c7 c2 c0 f1 63 00 	mov    rdx,0x63f1c0
  40607d:	31 c0                	xor    eax,eax
  40607f:	f0 48 0f b1 0a       	lock cmpxchg QWORD PTR [rdx],rcx
  406084:	48 8d 05 b5 ff ff ff 	lea    rax,[rip+0xffffffffffffffb5]        # 406040 <__libm_ceil_dispatch_table_x_init>
  40608b:	f0 48 0f b1 0a       	lock cmpxchg QWORD PTR [rdx],rcx
  406090:	48 83 c4 10          	add    rsp,0x10
  406094:	5b                   	pop    rbx
  406095:	ff 22                	jmp    QWORD PTR [rdx]
  406097:	66 0f 1f 84 00 00 00 	nop    WORD PTR [rax+rax*1+0x0]
  40609e:	00 00 

00000000004060a0 <__libm_ceil>:
  4060a0:	f3 0f 1e fa          	repz nop edx
  4060a4:	48 c7 c0 c0 f1 63 00 	mov    rax,0x63f1c0
  4060ab:	ff 20                	jmp    QWORD PTR [rax]
  4060ad:	0f 1f 00             	nop    DWORD PTR [rax]

00000000004060b0 <__libm_ceilf_dispatch_table_x_init>:
  4060b0:	f3 0f 1e fa          	repz nop edx
  4060b4:	53                   	push   rbx
  4060b5:	48 83 ec 10          	sub    rsp,0x10
  4060b9:	48 c7 c3 80 fb 64 00 	mov    rbx,0x64fb80
  4060c0:	8b 03                	mov    eax,DWORD PTR [rbx]
  4060c2:	85 c0                	test   eax,eax
  4060c4:	75 13                	jne    4060d9 <__libm_ceilf_dispatch_table_x_init+0x29>
  4060c6:	f3 0f 11 44 24 0c    	movss  DWORD PTR [rsp+0xc],xmm0
  4060cc:	e8 ff 04 00 00       	call   4065d0 <__libm_feature_flag_x_init>
  4060d1:	f3 0f 10 44 24 0c    	movss  xmm0,DWORD PTR [rsp+0xc]
  4060d7:	eb e7                	jmp    4060c0 <__libm_ceilf_dispatch_table_x_init+0x10>
  4060d9:	48 98                	cdqe   
  4060db:	48 8d 0d 5e 83 23 00 	lea    rcx,[rip+0x23835e]        # 63e440 <__libm_ceilf_dispatch_table_x>
  4060e2:	48 8b 0c c1          	mov    rcx,QWORD PTR [rcx+rax*8]
  4060e6:	48 c7 c2 00 f2 63 00 	mov    rdx,0x63f200
  4060ed:	31 c0                	xor    eax,eax
  4060ef:	f0 48 0f b1 0a       	lock cmpxchg QWORD PTR [rdx],rcx
  4060f4:	48 8d 05 b5 ff ff ff 	lea    rax,[rip+0xffffffffffffffb5]        # 4060b0 <__libm_ceilf_dispatch_table_x_init>
  4060fb:	f0 48 0f b1 0a       	lock cmpxchg QWORD PTR [rdx],rcx
  406100:	48 83 c4 10          	add    rsp,0x10
  406104:	5b                   	pop    rbx
  406105:	ff 22                	jmp    QWORD PTR [rdx]
  406107:	66 0f 1f 84 00 00 00 	nop    WORD PTR [rax+rax*1+0x0]
  40610e:	00 00 

0000000000406110 <__libm_ceilf>:
  406110:	f3 0f 1e fa          	repz nop edx
  406114:	48 c7 c0 00 f2 63 00 	mov    rax,0x63f200
  40611b:	ff 20                	jmp    QWORD PTR [rax]
  40611d:	0f 1f 00             	nop    DWORD PTR [rax]

0000000000406120 <__libm_cos_dispatch_table_x_init>:
  406120:	f3 0f 1e fa          	repz nop edx
  406124:	53                   	push   rbx
  406125:	48 83 ec 10          	sub    rsp,0x10
  406129:	48 c7 c3 80 fb 64 00 	mov    rbx,0x64fb80
  406130:	8b 03                	mov    eax,DWORD PTR [rbx]
  406132:	85 c0                	test   eax,eax
  406134:	75 13                	jne    406149 <__libm_cos_dispatch_table_x_init+0x29>
  406136:	f2 0f 11 44 24 08    	movsd  QWORD PTR [rsp+0x8],xmm0
  40613c:	e8 8f 04 00 00       	call   4065d0 <__libm_feature_flag_x_init>
  406141:	f2 0f 10 44 24 08    	movsd  xmm0,QWORD PTR [rsp+0x8]
  406147:	eb e7                	jmp    406130 <__libm_cos_dispatch_table_x_init+0x10>
  406149:	48 98                	cdqe   
  40614b:	48 8d 0d 6e 83 23 00 	lea    rcx,[rip+0x23836e]        # 63e4c0 <__libm_cos_dispatch_table_x>
  406152:	48 8b 0c c1          	mov    rcx,QWORD PTR [rcx+rax*8]
  406156:	48 c7 c2 40 f2 63 00 	mov    rdx,0x63f240
  40615d:	31 c0                	xor    eax,eax
  40615f:	f0 48 0f b1 0a       	lock cmpxchg QWORD PTR [rdx],rcx
  406164:	48 8d 05 b5 ff ff ff 	lea    rax,[rip+0xffffffffffffffb5]        # 406120 <__libm_cos_dispatch_table_x_init>
  40616b:	f0 48 0f b1 0a       	lock cmpxchg QWORD PTR [rdx],rcx
  406170:	48 83 c4 10          	add    rsp,0x10
  406174:	5b                   	pop    rbx
  406175:	ff 22                	jmp    QWORD PTR [rdx]
  406177:	66 0f 1f 84 00 00 00 	nop    WORD PTR [rax+rax*1+0x0]
  40617e:	00 00 

0000000000406180 <__libm_cos>:
  406180:	f3 0f 1e fa          	repz nop edx
  406184:	48 c7 c0 40 f2 63 00 	mov    rax,0x63f240
  40618b:	ff 20                	jmp    QWORD PTR [rax]
  40618d:	0f 1f 00             	nop    DWORD PTR [rax]

0000000000406190 <__libm_exp_dispatch_table_x_init>:
  406190:	f3 0f 1e fa          	repz nop edx
  406194:	53                   	push   rbx
  406195:	48 83 ec 10          	sub    rsp,0x10
  406199:	48 c7 c3 80 fb 64 00 	mov    rbx,0x64fb80
  4061a0:	8b 03                	mov    eax,DWORD PTR [rbx]
  4061a2:	85 c0                	test   eax,eax
  4061a4:	75 13                	jne    4061b9 <__libm_exp_dispatch_table_x_init+0x29>
  4061a6:	f2 0f 11 44 24 08    	movsd  QWORD PTR [rsp+0x8],xmm0
  4061ac:	e8 1f 04 00 00       	call   4065d0 <__libm_feature_flag_x_init>
  4061b1:	f2 0f 10 44 24 08    	movsd  xmm0,QWORD PTR [rsp+0x8]
  4061b7:	eb e7                	jmp    4061a0 <__libm_exp_dispatch_table_x_init+0x10>
  4061b9:	48 98                	cdqe   
  4061bb:	48 8d 0d 7e 83 23 00 	lea    rcx,[rip+0x23837e]        # 63e540 <__libm_exp_dispatch_table_x>
  4061c2:	48 8b 0c c1          	mov    rcx,QWORD PTR [rcx+rax*8]
  4061c6:	48 c7 c2 80 f2 63 00 	mov    rdx,0x63f280
  4061cd:	31 c0                	xor    eax,eax
  4061cf:	f0 48 0f b1 0a       	lock cmpxchg QWORD PTR [rdx],rcx
  4061d4:	48 8d 05 b5 ff ff ff 	lea    rax,[rip+0xffffffffffffffb5]        # 406190 <__libm_exp_dispatch_table_x_init>
  4061db:	f0 48 0f b1 0a       	lock cmpxchg QWORD PTR [rdx],rcx
  4061e0:	48 83 c4 10          	add    rsp,0x10
  4061e4:	5b                   	pop    rbx
  4061e5:	ff 22                	jmp    QWORD PTR [rdx]
  4061e7:	66 0f 1f 84 00 00 00 	nop    WORD PTR [rax+rax*1+0x0]
  4061ee:	00 00 

00000000004061f0 <__libm_exp>:
  4061f0:	f3 0f 1e fa          	repz nop edx
  4061f4:	48 c7 c0 80 f2 63 00 	mov    rax,0x63f280
  4061fb:	ff 20                	jmp    QWORD PTR [rax]
  4061fd:	0f 1f 00             	nop    DWORD PTR [rax]

0000000000406200 <__libm_expf_dispatch_table_x_init>:
  406200:	f3 0f 1e fa          	repz nop edx
  406204:	53                   	push   rbx
  406205:	48 83 ec 10          	sub    rsp,0x10
  406209:	48 c7 c3 80 fb 64 00 	mov    rbx,0x64fb80
  406210:	8b 03                	mov    eax,DWORD PTR [rbx]
  406212:	85 c0                	test   eax,eax
  406214:	75 13                	jne    406229 <__libm_expf_dispatch_table_x_init+0x29>
  406216:	f3 0f 11 44 24 0c    	movss  DWORD PTR [rsp+0xc],xmm0
  40621c:	e8 af 03 00 00       	call   4065d0 <__libm_feature_flag_x_init>
  406221:	f3 0f 10 44 24 0c    	movss  xmm0,DWORD PTR [rsp+0xc]
  406227:	eb e7                	jmp    406210 <__libm_expf_dispatch_table_x_init+0x10>
  406229:	48 98                	cdqe   
  40622b:	48 8d 0d 8e 83 23 00 	lea    rcx,[rip+0x23838e]        # 63e5c0 <__libm_expf_dispatch_table_x>
  406232:	48 8b 0c c1          	mov    rcx,QWORD PTR [rcx+rax*8]
  406236:	48 c7 c2 c0 f2 63 00 	mov    rdx,0x63f2c0
  40623d:	31 c0                	xor    eax,eax
  40623f:	f0 48 0f b1 0a       	lock cmpxchg QWORD PTR [rdx],rcx
  406244:	48 8d 05 b5 ff ff ff 	lea    rax,[rip+0xffffffffffffffb5]        # 406200 <__libm_expf_dispatch_table_x_init>
  40624b:	f0 48 0f b1 0a       	lock cmpxchg QWORD PTR [rdx],rcx
  406250:	48 83 c4 10          	add    rsp,0x10
  406254:	5b                   	pop    rbx
  406255:	ff 22                	jmp    QWORD PTR [rdx]
  406257:	66 0f 1f 84 00 00 00 	nop    WORD PTR [rax+rax*1+0x0]
  40625e:	00 00 

0000000000406260 <__libm_expf>:
  406260:	f3 0f 1e fa          	repz nop edx
  406264:	48 c7 c0 c0 f2 63 00 	mov    rax,0x63f2c0
  40626b:	ff 20                	jmp    QWORD PTR [rax]
  40626d:	0f 1f 00             	nop    DWORD PTR [rax]

0000000000406270 <__libm_floor_dispatch_table_x_init>:
  406270:	f3 0f 1e fa          	repz nop edx
  406274:	53                   	push   rbx
  406275:	48 83 ec 10          	sub    rsp,0x10
  406279:	48 c7 c3 80 fb 64 00 	mov    rbx,0x64fb80
  406280:	8b 03                	mov    eax,DWORD PTR [rbx]
  406282:	85 c0                	test   eax,eax
  406284:	75 13                	jne    406299 <__libm_floor_dispatch_table_x_init+0x29>
  406286:	f2 0f 11 44 24 08    	movsd  QWORD PTR [rsp+0x8],xmm0
  40628c:	e8 3f 03 00 00       	call   4065d0 <__libm_feature_flag_x_init>
  406291:	f2 0f 10 44 24 08    	movsd  xmm0,QWORD PTR [rsp+0x8]
  406297:	eb e7                	jmp    406280 <__libm_floor_dispatch_table_x_init+0x10>
  406299:	48 98                	cdqe   
  40629b:	48 8d 0d 9e 83 23 00 	lea    rcx,[rip+0x23839e]        # 63e640 <__libm_floor_dispatch_table_x>
  4062a2:	48 8b 0c c1          	mov    rcx,QWORD PTR [rcx+rax*8]
  4062a6:	48 c7 c2 00 f3 63 00 	mov    rdx,0x63f300
  4062ad:	31 c0                	xor    eax,eax
  4062af:	f0 48 0f b1 0a       	lock cmpxchg QWORD PTR [rdx],rcx
  4062b4:	48 8d 05 b5 ff ff ff 	lea    rax,[rip+0xffffffffffffffb5]        # 406270 <__libm_floor_dispatch_table_x_init>
  4062bb:	f0 48 0f b1 0a       	lock cmpxchg QWORD PTR [rdx],rcx
  4062c0:	48 83 c4 10          	add    rsp,0x10
  4062c4:	5b                   	pop    rbx
  4062c5:	ff 22                	jmp    QWORD PTR [rdx]
  4062c7:	66 0f 1f 84 00 00 00 	nop    WORD PTR [rax+rax*1+0x0]
  4062ce:	00 00 

00000000004062d0 <__libm_floor>:
  4062d0:	f3 0f 1e fa          	repz nop edx
  4062d4:	48 c7 c0 00 f3 63 00 	mov    rax,0x63f300
  4062db:	ff 20                	jmp    QWORD PTR [rax]
  4062dd:	0f 1f 00             	nop    DWORD PTR [rax]

00000000004062e0 <__libm_log_dispatch_table_x_init>:
  4062e0:	f3 0f 1e fa          	repz nop edx
  4062e4:	53                   	push   rbx
  4062e5:	48 83 ec 10          	sub    rsp,0x10
  4062e9:	48 c7 c3 80 fb 64 00 	mov    rbx,0x64fb80
  4062f0:	8b 03                	mov    eax,DWORD PTR [rbx]
  4062f2:	85 c0                	test   eax,eax
  4062f4:	75 13                	jne    406309 <__libm_log_dispatch_table_x_init+0x29>
  4062f6:	f2 0f 11 44 24 08    	movsd  QWORD PTR [rsp+0x8],xmm0
  4062fc:	e8 cf 02 00 00       	call   4065d0 <__libm_feature_flag_x_init>
  406301:	f2 0f 10 44 24 08    	movsd  xmm0,QWORD PTR [rsp+0x8]
  406307:	eb e7                	jmp    4062f0 <__libm_log_dispatch_table_x_init+0x10>
  406309:	48 98                	cdqe   
  40630b:	48 8d 0d ae 83 23 00 	lea    rcx,[rip+0x2383ae]        # 63e6c0 <__libm_log_dispatch_table_x>
  406312:	48 8b 0c c1          	mov    rcx,QWORD PTR [rcx+rax*8]
  406316:	48 c7 c2 40 f3 63 00 	mov    rdx,0x63f340
  40631d:	31 c0                	xor    eax,eax
  40631f:	f0 48 0f b1 0a       	lock cmpxchg QWORD PTR [rdx],rcx
  406324:	48 8d 05 b5 ff ff ff 	lea    rax,[rip+0xffffffffffffffb5]        # 4062e0 <__libm_log_dispatch_table_x_init>
  40632b:	f0 48 0f b1 0a       	lock cmpxchg QWORD PTR [rdx],rcx
  406330:	48 83 c4 10          	add    rsp,0x10
  406334:	5b                   	pop    rbx
  406335:	ff 22                	jmp    QWORD PTR [rdx]
  406337:	66 0f 1f 84 00 00 00 	nop    WORD PTR [rax+rax*1+0x0]
  40633e:	00 00 

0000000000406340 <__libm_log>:
  406340:	f3 0f 1e fa          	repz nop edx
  406344:	48 c7 c0 40 f3 63 00 	mov    rax,0x63f340
  40634b:	ff 20                	jmp    QWORD PTR [rax]
  40634d:	0f 1f 00             	nop    DWORD PTR [rax]

0000000000406350 <__libm_log10_dispatch_table_x_init>:
  406350:	f3 0f 1e fa          	repz nop edx
  406354:	53                   	push   rbx
  406355:	48 83 ec 10          	sub    rsp,0x10
  406359:	48 c7 c3 80 fb 64 00 	mov    rbx,0x64fb80
  406360:	8b 03                	mov    eax,DWORD PTR [rbx]
  406362:	85 c0                	test   eax,eax
  406364:	75 13                	jne    406379 <__libm_log10_dispatch_table_x_init+0x29>
  406366:	f2 0f 11 44 24 08    	movsd  QWORD PTR [rsp+0x8],xmm0
  40636c:	e8 5f 02 00 00       	call   4065d0 <__libm_feature_flag_x_init>
  406371:	f2 0f 10 44 24 08    	movsd  xmm0,QWORD PTR [rsp+0x8]
  406377:	eb e7                	jmp    406360 <__libm_log10_dispatch_table_x_init+0x10>
  406379:	48 98                	cdqe   
  40637b:	48 8d 0d be 83 23 00 	lea    rcx,[rip+0x2383be]        # 63e740 <__libm_log10_dispatch_table_x>
  406382:	48 8b 0c c1          	mov    rcx,QWORD PTR [rcx+rax*8]
  406386:	48 c7 c2 80 f3 63 00 	mov    rdx,0x63f380
  40638d:	31 c0                	xor    eax,eax
  40638f:	f0 48 0f b1 0a       	lock cmpxchg QWORD PTR [rdx],rcx
  406394:	48 8d 05 b5 ff ff ff 	lea    rax,[rip+0xffffffffffffffb5]        # 406350 <__libm_log10_dispatch_table_x_init>
  40639b:	f0 48 0f b1 0a       	lock cmpxchg QWORD PTR [rdx],rcx
  4063a0:	48 83 c4 10          	add    rsp,0x10
  4063a4:	5b                   	pop    rbx
  4063a5:	ff 22                	jmp    QWORD PTR [rdx]
  4063a7:	66 0f 1f 84 00 00 00 	nop    WORD PTR [rax+rax*1+0x0]
  4063ae:	00 00 

00000000004063b0 <__libm_log10>:
  4063b0:	f3 0f 1e fa          	repz nop edx
  4063b4:	48 c7 c0 80 f3 63 00 	mov    rax,0x63f380
  4063bb:	ff 20                	jmp    QWORD PTR [rax]
  4063bd:	0f 1f 00             	nop    DWORD PTR [rax]

00000000004063c0 <__libm_logf_dispatch_table_x_init>:
  4063c0:	f3 0f 1e fa          	repz nop edx
  4063c4:	53                   	push   rbx
  4063c5:	48 83 ec 10          	sub    rsp,0x10
  4063c9:	48 c7 c3 80 fb 64 00 	mov    rbx,0x64fb80
  4063d0:	8b 03                	mov    eax,DWORD PTR [rbx]
  4063d2:	85 c0                	test   eax,eax
  4063d4:	75 13                	jne    4063e9 <__libm_logf_dispatch_table_x_init+0x29>
  4063d6:	f3 0f 11 44 24 0c    	movss  DWORD PTR [rsp+0xc],xmm0
  4063dc:	e8 ef 01 00 00       	call   4065d0 <__libm_feature_flag_x_init>
  4063e1:	f3 0f 10 44 24 0c    	movss  xmm0,DWORD PTR [rsp+0xc]
  4063e7:	eb e7                	jmp    4063d0 <__libm_logf_dispatch_table_x_init+0x10>
  4063e9:	48 98                	cdqe   
  4063eb:	48 8d 0d ce 83 23 00 	lea    rcx,[rip+0x2383ce]        # 63e7c0 <__libm_logf_dispatch_table_x>
  4063f2:	48 8b 0c c1          	mov    rcx,QWORD PTR [rcx+rax*8]
  4063f6:	48 c7 c2 c0 f3 63 00 	mov    rdx,0x63f3c0
  4063fd:	31 c0                	xor    eax,eax
  4063ff:	f0 48 0f b1 0a       	lock cmpxchg QWORD PTR [rdx],rcx
  406404:	48 8d 05 b5 ff ff ff 	lea    rax,[rip+0xffffffffffffffb5]        # 4063c0 <__libm_logf_dispatch_table_x_init>
  40640b:	f0 48 0f b1 0a       	lock cmpxchg QWORD PTR [rdx],rcx
  406410:	48 83 c4 10          	add    rsp,0x10
  406414:	5b                   	pop    rbx
  406415:	ff 22                	jmp    QWORD PTR [rdx]
  406417:	66 0f 1f 84 00 00 00 	nop    WORD PTR [rax+rax*1+0x0]
  40641e:	00 00 

0000000000406420 <__libm_logf>:
  406420:	f3 0f 1e fa          	repz nop edx
  406424:	48 c7 c0 c0 f3 63 00 	mov    rax,0x63f3c0
  40642b:	ff 20                	jmp    QWORD PTR [rax]
  40642d:	0f 1f 00             	nop    DWORD PTR [rax]

0000000000406430 <__libm_matherr>:
  406430:	f3 0f 1e fa          	repz nop edx
  406434:	e9 d7 6c 00 00       	jmp    40d110 <__libm_matherr_ex>
  406439:	0f 1f 80 00 00 00 00 	nop    DWORD PTR [rax+0x0]

0000000000406440 <__libm_matherrf>:
  406440:	f3 0f 1e fa          	repz nop edx
  406444:	e9 d7 6c 00 00       	jmp    40d120 <__libm_matherrf_ex>
  406449:	0f 1f 80 00 00 00 00 	nop    DWORD PTR [rax+0x0]

0000000000406450 <__libm_matherrl>:
  406450:	f3 0f 1e fa          	repz nop edx
  406454:	e9 d7 6c 00 00       	jmp    40d130 <__libm_matherrl_ex>
  406459:	0f 1f 80 00 00 00 00 	nop    DWORD PTR [rax+0x0]

0000000000406460 <__libm_pow_dispatch_table_x_init>:
  406460:	f3 0f 1e fa          	repz nop edx
  406464:	53                   	push   rbx
  406465:	48 83 ec 10          	sub    rsp,0x10
  406469:	48 c7 c3 80 fb 64 00 	mov    rbx,0x64fb80
  406470:	8b 03                	mov    eax,DWORD PTR [rbx]
  406472:	85 c0                	test   eax,eax
  406474:	75 1d                	jne    406493 <__libm_pow_dispatch_table_x_init+0x33>
  406476:	f2 0f 11 04 24       	movsd  QWORD PTR [rsp],xmm0
  40647b:	f2 0f 11 4c 24 08    	movsd  QWORD PTR [rsp+0x8],xmm1
  406481:	e8 4a 01 00 00       	call   4065d0 <__libm_feature_flag_x_init>
  406486:	f2 0f 10 04 24       	movsd  xmm0,QWORD PTR [rsp]
  40648b:	f2 0f 10 4c 24 08    	movsd  xmm1,QWORD PTR [rsp+0x8]
  406491:	eb dd                	jmp    406470 <__libm_pow_dispatch_table_x_init+0x10>
  406493:	48 98                	cdqe   
  406495:	48 8d 0d a4 83 23 00 	lea    rcx,[rip+0x2383a4]        # 63e840 <__libm_pow_dispatch_table_x>
  40649c:	48 8b 0c c1          	mov    rcx,QWORD PTR [rcx+rax*8]
  4064a0:	48 c7 c2 00 f4 63 00 	mov    rdx,0x63f400
  4064a7:	31 c0                	xor    eax,eax
  4064a9:	f0 48 0f b1 0a       	lock cmpxchg QWORD PTR [rdx],rcx
  4064ae:	48 8d 05 ab ff ff ff 	lea    rax,[rip+0xffffffffffffffab]        # 406460 <__libm_pow_dispatch_table_x_init>
  4064b5:	f0 48 0f b1 0a       	lock cmpxchg QWORD PTR [rdx],rcx
  4064ba:	48 8b 02             	mov    rax,QWORD PTR [rdx]
  4064bd:	48 83 c4 10          	add    rsp,0x10
  4064c1:	5b                   	pop    rbx
  4064c2:	ff e0                	jmp    rax
  4064c4:	66 66 66 2e 0f 1f 84 	data16 data16 nop WORD PTR cs:[rax+rax*1+0x0]
  4064cb:	00 00 00 00 00 

00000000004064d0 <__libm_pow>:
  4064d0:	f3 0f 1e fa          	repz nop edx
  4064d4:	48 c7 c0 00 f4 63 00 	mov    rax,0x63f400
  4064db:	48 8b 00             	mov    rax,QWORD PTR [rax]
  4064de:	ff e0                	jmp    rax

00000000004064e0 <__libm_sin_dispatch_table_x_init>:
  4064e0:	f3 0f 1e fa          	repz nop edx
  4064e4:	53                   	push   rbx
  4064e5:	48 83 ec 10          	sub    rsp,0x10
  4064e9:	48 c7 c3 80 fb 64 00 	mov    rbx,0x64fb80
  4064f0:	8b 03                	mov    eax,DWORD PTR [rbx]
  4064f2:	85 c0                	test   eax,eax
  4064f4:	75 13                	jne    406509 <__libm_sin_dispatch_table_x_init+0x29>
  4064f6:	f2 0f 11 44 24 08    	movsd  QWORD PTR [rsp+0x8],xmm0
  4064fc:	e8 cf 00 00 00       	call   4065d0 <__libm_feature_flag_x_init>
  406501:	f2 0f 10 44 24 08    	movsd  xmm0,QWORD PTR [rsp+0x8]
  406507:	eb e7                	jmp    4064f0 <__libm_sin_dispatch_table_x_init+0x10>
  406509:	48 98                	cdqe   
  40650b:	48 8d 0d ae 83 23 00 	lea    rcx,[rip+0x2383ae]        # 63e8c0 <__libm_sin_dispatch_table_x>
  406512:	48 8b 0c c1          	mov    rcx,QWORD PTR [rcx+rax*8]
  406516:	48 c7 c2 40 f4 63 00 	mov    rdx,0x63f440
  40651d:	31 c0                	xor    eax,eax
  40651f:	f0 48 0f b1 0a       	lock cmpxchg QWORD PTR [rdx],rcx
  406524:	48 8d 05 b5 ff ff ff 	lea    rax,[rip+0xffffffffffffffb5]        # 4064e0 <__libm_sin_dispatch_table_x_init>
  40652b:	f0 48 0f b1 0a       	lock cmpxchg QWORD PTR [rdx],rcx
  406530:	48 83 c4 10          	add    rsp,0x10
  406534:	5b                   	pop    rbx
  406535:	ff 22                	jmp    QWORD PTR [rdx]
  406537:	66 0f 1f 84 00 00 00 	nop    WORD PTR [rax+rax*1+0x0]
  40653e:	00 00 

0000000000406540 <__libm_sin>:
  406540:	f3 0f 1e fa          	repz nop edx
  406544:	48 c7 c0 40 f4 63 00 	mov    rax,0x63f440
  40654b:	ff 20                	jmp    QWORD PTR [rax]
  40654d:	0f 1f 00             	nop    DWORD PTR [rax]

0000000000406550 <__libm_sqrtf_dispatch_table_x_init>:
  406550:	f3 0f 1e fa          	repz nop edx
  406554:	53                   	push   rbx
  406555:	48 83 ec 10          	sub    rsp,0x10
  406559:	48 c7 c3 80 fb 64 00 	mov    rbx,0x64fb80
  406560:	8b 03                	mov    eax,DWORD PTR [rbx]
  406562:	85 c0                	test   eax,eax
  406564:	75 13                	jne    406579 <__libm_sqrtf_dispatch_table_x_init+0x29>
  406566:	f3 0f 11 44 24 0c    	movss  DWORD PTR [rsp+0xc],xmm0
  40656c:	e8 5f 00 00 00       	call   4065d0 <__libm_feature_flag_x_init>
  406571:	f3 0f 10 44 24 0c    	movss  xmm0,DWORD PTR [rsp+0xc]
  406577:	eb e7                	jmp    406560 <__libm_sqrtf_dispatch_table_x_init+0x10>
  406579:	48 98                	cdqe   
  40657b:	48 8d 0d be 83 23 00 	lea    rcx,[rip+0x2383be]        # 63e940 <__libm_sqrtf_dispatch_table_x>
  406582:	48 8b 0c c1          	mov    rcx,QWORD PTR [rcx+rax*8]
  406586:	48 c7 c2 80 f4 63 00 	mov    rdx,0x63f480
  40658d:	31 c0                	xor    eax,eax
  40658f:	f0 48 0f b1 0a       	lock cmpxchg QWORD PTR [rdx],rcx
  406594:	48 8d 05 b5 ff ff ff 	lea    rax,[rip+0xffffffffffffffb5]        # 406550 <__libm_sqrtf_dispatch_table_x_init>
  40659b:	f0 48 0f b1 0a       	lock cmpxchg QWORD PTR [rdx],rcx
  4065a0:	48 83 c4 10          	add    rsp,0x10
  4065a4:	5b                   	pop    rbx
  4065a5:	ff 22                	jmp    QWORD PTR [rdx]
  4065a7:	66 0f 1f 84 00 00 00 	nop    WORD PTR [rax+rax*1+0x0]
  4065ae:	00 00 

00000000004065b0 <__libm_sqrtf>:
  4065b0:	f3 0f 1e fa          	repz nop edx
  4065b4:	48 c7 c0 80 f4 63 00 	mov    rax,0x63f480
  4065bb:	ff 20                	jmp    QWORD PTR [rax]
  4065bd:	0f 1f 00             	nop    DWORD PTR [rax]

00000000004065c0 <__libm_feature_flag_init_callback>:
  4065c0:	f3 0f 1e fa          	repz nop edx
  4065c4:	89 f8                	mov    eax,edi
  4065c6:	c3                   	ret    
  4065c7:	66 0f 1f 84 00 00 00 	nop    WORD PTR [rax+rax*1+0x0]
  4065ce:	00 00 

00000000004065d0 <__libm_feature_flag_x_init>:
  4065d0:	f3 0f 1e fa          	repz nop edx
  4065d4:	41 56                	push   r14
  4065d6:	53                   	push   rbx
  4065d7:	50                   	push   rax
  4065d8:	48 c7 c1 40 fb 64 00 	mov    rcx,0x64fb40
  4065df:	ba 01 00 00 00       	mov    edx,0x1
  4065e4:	31 c0                	xor    eax,eax
  4065e6:	f0 0f b1 11          	lock cmpxchg DWORD PTR [rcx],edx
  4065ea:	75 58                	jne    406644 <__libm_feature_flag_x_init+0x74>
  4065ec:	49 c7 c6 80 fb 64 00 	mov    r14,0x64fb80
  4065f3:	41 83 3e 00          	cmp    DWORD PTR [r14],0x0
  4065f7:	75 4b                	jne    406644 <__libm_feature_flag_x_init+0x74>
  4065f9:	48 c7 c1 a0 fb 64 00 	mov    rcx,0x64fba0
  406600:	48 8b 01             	mov    rax,QWORD PTR [rcx]
  406603:	48 85 c0             	test   rax,rax
  406606:	75 07                	jne    40660f <__libm_feature_flag_x_init+0x3f>
  406608:	e8 83 96 00 00       	call   40fc90 <__intel_cpu_features_init_x>
  40660d:	eb f1                	jmp    406600 <__libm_feature_flag_x_init+0x30>
  40660f:	48 89 c1             	mov    rcx,rax
  406612:	48 f7 d1             	not    rcx
  406615:	bb 0c 00 00 00       	mov    ebx,0xc
  40661a:	48 ba 00 00 00 09 64 	movabs rdx,0x6409000000
  406621:	00 00 00 
  406624:	48 85 d1             	test   rcx,rdx
  406627:	75 23                	jne    40664c <__libm_feature_flag_x_init+0x7c>
  406629:	89 df                	mov    edi,ebx
  40662b:	e8 90 ff ff ff       	call   4065c0 <__libm_feature_flag_init_callback>
  406630:	39 d8                	cmp    eax,ebx
  406632:	89 d9                	mov    ecx,ebx
  406634:	0f 4c c8             	cmovl  ecx,eax
  406637:	83 f8 02             	cmp    eax,0x2
  40663a:	0f 4c cb             	cmovl  ecx,ebx
  40663d:	31 c0                	xor    eax,eax
  40663f:	f0 41 0f b1 0e       	lock cmpxchg DWORD PTR [r14],ecx
  406644:	48 83 c4 08          	add    rsp,0x8
  406648:	5b                   	pop    rbx
  406649:	41 5e                	pop    r14
  40664b:	c3                   	ret    
  40664c:	bb 0b 00 00 00       	mov    ebx,0xb
  406651:	48 ba 00 00 00 08 07 	movabs rdx,0x708000000
  406658:	00 00 00 
  40665b:	48 85 d1             	test   rcx,rdx
  40665e:	74 c9                	je     406629 <__libm_feature_flag_x_init+0x59>
  406660:	89 c1                	mov    ecx,eax
  406662:	f7 d1                	not    ecx
  406664:	bb 0a 00 00 00       	mov    ebx,0xa
  406669:	f7 c1 00 20 9c 00    	test   ecx,0x9c2000
  40666f:	74 b8                	je     406629 <__libm_feature_flag_x_init+0x59>
  406671:	bb 09 00 00 00       	mov    ebx,0x9
  406676:	a9 00 00 01 00       	test   eax,0x10000
  40667b:	75 ac                	jne    406629 <__libm_feature_flag_x_init+0x59>
  40667d:	bb 08 00 00 00       	mov    ebx,0x8
  406682:	a9 00 04 00 00       	test   eax,0x400
  406687:	75 a0                	jne    406629 <__libm_feature_flag_x_init+0x59>
  406689:	bb 07 00 00 00       	mov    ebx,0x7
  40668e:	a9 00 02 00 00       	test   eax,0x200
  406693:	75 94                	jne    406629 <__libm_feature_flag_x_init+0x59>
  406695:	bb 06 00 00 00       	mov    ebx,0x6
  40669a:	a9 00 01 00 00       	test   eax,0x100
  40669f:	75 88                	jne    406629 <__libm_feature_flag_x_init+0x59>
  4066a1:	bb 05 00 00 00       	mov    ebx,0x5
  4066a6:	a8 80                	test   al,0x80
  4066a8:	0f 85 7b ff ff ff    	jne    406629 <__libm_feature_flag_x_init+0x59>
  4066ae:	bb 04 00 00 00       	mov    ebx,0x4
  4066b3:	a8 40                	test   al,0x40
  4066b5:	0f 85 6e ff ff ff    	jne    406629 <__libm_feature_flag_x_init+0x59>
  4066bb:	bb 03 00 00 00       	mov    ebx,0x3
  4066c0:	a8 20                	test   al,0x20
  4066c2:	0f 85 61 ff ff ff    	jne    406629 <__libm_feature_flag_x_init+0x59>
  4066c8:	bb 02 00 00 00       	mov    ebx,0x2
  4066cd:	a8 02                	test   al,0x2
  4066cf:	0f 85 54 ff ff ff    	jne    406629 <__libm_feature_flag_x_init+0x59>
  4066d5:	bb 01 00 00 00       	mov    ebx,0x1
  4066da:	e9 4a ff ff ff       	jmp    406629 <__libm_feature_flag_x_init+0x59>
  4066df:	90                   	nop

00000000004066e0 <__libm_acos_ex>:
  4066e0:	f3 0f 1e fa          	repz nop edx
  4066e4:	48 83 ec 28          	sub    rsp,0x28
  4066e8:	f2 0f 11 44 24 08    	movsd  QWORD PTR [rsp+0x8],xmm0
  4066ee:	48 c7 c0 10 5f 40 00 	mov    rax,0x405f10
  4066f5:	48 89 44 24 18       	mov    QWORD PTR [rsp+0x18],rax
  4066fa:	f2 0f 10 25 8e 15 01 	movsd  xmm4,QWORD PTR [rip+0x1158e]        # 417c90 <ABSVALMASK>
  406701:	00 
  406702:	f2 0f 10 1d 96 15 01 	movsd  xmm3,QWORD PTR [rip+0x11596]        # 417ca0 <ONEMASK>
  406709:	00 
  40670a:	66 0f 57 ed          	xorpd  xmm5,xmm5
  40670e:	f2 0f 10 15 92 15 01 	movsd  xmm2,QWORD PTR [rip+0x11592]        # 417ca8 <TMASK>
  406715:	00 
  406716:	f3 0f 7e c8          	movq   xmm1,xmm0
  40671a:	66 0f 73 d0 2c       	psrlq  xmm0,0x2c
  40671f:	66 0f 7e c2          	movd   edx,xmm0
  406723:	f3 0f 7e f9          	movq   xmm7,xmm1
  406727:	b9 00 20 00 00       	mov    ecx,0x2000
  40672c:	66 0f c4 e9 02       	pinsrw xmm5,ecx,0x2
  406731:	f3 0f 7e c1          	movq   xmm0,xmm1
  406735:	b8 ff ff 07 00       	mov    eax,0x7ffff
  40673a:	21 d0                	and    eax,edx
  40673c:	2d 00 fb 03 00       	sub    eax,0x3fb00
  406741:	3d bb 03 00 00       	cmp    eax,0x3bb
  406746:	0f 83 d2 00 00 00    	jae    40681e <__libm_acos_ex+0x13e>
  40674c:	f2 0f 59 c9          	mulsd  xmm1,xmm1
  406750:	81 e2 ff ff 00 00    	and    edx,0xffff
  406756:	f2 0f 5c d9          	subsd  xmm3,xmm1
  40675a:	f2 0f 51 db          	sqrtsd xmm3,xmm3
  40675e:	66 0f 54 d7          	andpd  xmm2,xmm7
  406762:	83 e2 fc             	and    edx,0xfffffffc
  406765:	81 ea 00 fb 00 00    	sub    edx,0xfb00
  40676b:	4c 8d 05 3e 15 01 00 	lea    r8,[rip+0x1153e]        # 417cb0 <T_table>
  406772:	f2 41 0f 10 0c 50    	movsd  xmm1,QWORD PTR [r8+rdx*2]
  406778:	66 0f 56 d5          	orpd   xmm2,xmm5
  40677c:	4c 8d 05 2d 1d 01 00 	lea    r8,[rip+0x11d2d]        # 4184b0 <Tbl_addr>
  406783:	66 41 0f 28 24 90    	movapd xmm4,XMMWORD PTR [r8+rdx*4]
  406789:	f3 0f 7e f7          	movq   xmm6,xmm7
  40678d:	f2 0f 58 fa          	addsd  xmm7,xmm2
  406791:	f2 0f 5c c2          	subsd  xmm0,xmm2
  406795:	f2 0f 59 f8          	mulsd  xmm7,xmm0
  406799:	f2 0f 59 f1          	mulsd  xmm6,xmm1
  40679d:	f2 0f 59 da          	mulsd  xmm3,xmm2
  4067a1:	f3 0f 7e ce          	movq   xmm1,xmm6
  4067a5:	f2 0f 58 f3          	addsd  xmm6,xmm3
  4067a9:	f2 0f 5e fe          	divsd  xmm7,xmm6
  4067ad:	f2 0f 10 05 13 2c 01 	movsd  xmm0,QWORD PTR [rip+0x12c13]        # 4193c8 <cv+0x18>
  4067b4:	00 
  4067b5:	f2 0f 10 2d fb 2b 01 	movsd  xmm5,QWORD PTR [rip+0x12bfb]        # 4193b8 <cv+0x8>
  4067bc:	00 
  4067bd:	f2 0f 5c cb          	subsd  xmm1,xmm3
  4067c1:	66 0f 73 d2 3f       	psrlq  xmm2,0x3f
  4067c6:	f3 0f 7e d9          	movq   xmm3,xmm1
  4067ca:	66 0f 73 f2 3f       	psllq  xmm2,0x3f
  4067cf:	f2 0f 59 c9          	mulsd  xmm1,xmm1
  4067d3:	66 0f 70 d2 44       	pshufd xmm2,xmm2,0x44
  4067d8:	f2 0f 10 35 e0 2b 01 	movsd  xmm6,QWORD PTR [rip+0x12be0]        # 4193c0 <cv+0x10>
  4067df:	00 
  4067e0:	f2 0f 59 d9          	mulsd  xmm3,xmm1
  4067e4:	f2 0f 59 c1          	mulsd  xmm0,xmm1
  4067e8:	66 0f 57 e2          	xorpd  xmm4,xmm2
  4067ec:	f2 0f 59 eb          	mulsd  xmm5,xmm3
  4067f0:	66 0f 5c 25 d8 2b 01 	subpd  xmm4,XMMWORD PTR [rip+0x12bd8]        # 4193d0 <PI_BY_2>
  4067f7:	00 
  4067f8:	f2 0f 59 d9          	mulsd  xmm3,xmm1
  4067fc:	f2 0f 58 c6          	addsd  xmm0,xmm6
  406800:	f2 0f 59 c3          	mulsd  xmm0,xmm3
  406804:	f2 0f 5c ec          	subsd  xmm5,xmm4
  406808:	66 0f 70 e4 ee       	pshufd xmm4,xmm4,0xee
  40680d:	f2 0f 58 c5          	addsd  xmm0,xmm5
  406811:	f2 0f 5c c7          	subsd  xmm0,xmm7
  406815:	f2 0f 5c c4          	subsd  xmm0,xmm4
  406819:	e9 a8 03 00 00       	jmp    406bc6 <__libm_acos_ex+0x4e6>
  40681e:	2d bb 03 00 00       	sub    eax,0x3bb
  406823:	83 f8 41             	cmp    eax,0x41
  406826:	0f 83 29 01 00 00    	jae    406955 <__libm_acos_ex+0x275>
  40682c:	66 0f 73 d7 26       	psrlq  xmm7,0x26
  406831:	66 0f 73 f7 26       	psllq  xmm7,0x26
  406836:	66 0f d7 c0          	pmovmskb eax,xmm0
  40683a:	66 0f 55 e0          	andnpd xmm4,xmm0
  40683e:	f2 0f 5c cf          	subsd  xmm1,xmm7
  406842:	f3 0f 7e f7          	movq   xmm6,xmm7
  406846:	f2 0f 59 ff          	mulsd  xmm7,xmm7
  40684a:	f2 0f 58 c6          	addsd  xmm0,xmm6
  40684e:	66 0f 56 ec          	orpd   xmm5,xmm4
  406852:	f2 0f 5c df          	subsd  xmm3,xmm7
  406856:	f2 0f 59 c1          	mulsd  xmm0,xmm1
  40685a:	f3 0f 7e e3          	movq   xmm4,xmm3
  40685e:	f2 0f 5c d8          	subsd  xmm3,xmm0
  406862:	f2 0f 51 db          	sqrtsd xmm3,xmm3
  406866:	25 80 00 00 00       	and    eax,0x80
  40686b:	c1 e8 07             	shr    eax,0x7
  40686e:	f7 d8                	neg    eax
  406870:	f3 0f 7e fb          	movq   xmm7,xmm3
  406874:	66 0f 54 d3          	andpd  xmm2,xmm3
  406878:	66 0f 73 f3 02       	psllq  xmm3,0x2
  40687d:	66 0f c5 d3 03       	pextrw edx,xmm3,0x3
  406882:	66 0f 56 d5          	orpd   xmm2,xmm5
  406886:	66 0f 6e d8          	movd   xmm3,eax
  40688a:	66 0f 70 db 00       	pshufd xmm3,xmm3,0x0
  40688f:	81 ea c0 fe 00 00    	sub    edx,0xfec0
  406895:	01 d2                	add    edx,edx
  406897:	4c 8d 05 12 14 01 00 	lea    r8,[rip+0x11412]        # 417cb0 <T_table>
  40689e:	f2 41 0f 59 3c 90    	mulsd  xmm7,QWORD PTR [r8+rdx*4]
  4068a4:	f2 0f 59 f2          	mulsd  xmm6,xmm2
  4068a8:	f2 0f 59 ca          	mulsd  xmm1,xmm2
  4068ac:	f2 0f 59 d2          	mulsd  xmm2,xmm2
  4068b0:	f2 0f 5c f7          	subsd  xmm6,xmm7
  4068b4:	66 0f 54 1d 24 2b 01 	andpd  xmm3,XMMWORD PTR [rip+0x12b24]        # 4193e0 <NEG_PI>
  4068bb:	00 
  4068bc:	f2 0f 58 f1          	addsd  xmm6,xmm1
  4068c0:	f2 0f 5c e2          	subsd  xmm4,xmm2
  4068c4:	f2 0f 58 ff          	addsd  xmm7,xmm7
  4068c8:	f2 0f 10 2d e8 2a 01 	movsd  xmm5,QWORD PTR [rip+0x12ae8]        # 4193b8 <cv+0x8>
  4068cf:	00 
  4068d0:	f2 0f 5c e0          	subsd  xmm4,xmm0
  4068d4:	f2 0f 58 fe          	addsd  xmm7,xmm6
  4068d8:	f2 0f 10 05 e8 2a 01 	movsd  xmm0,QWORD PTR [rip+0x12ae8]        # 4193c8 <cv+0x18>
  4068df:	00 
  4068e0:	f2 0f 5e e7          	divsd  xmm4,xmm7
  4068e4:	f2 0f 10 15 d4 2a 01 	movsd  xmm2,QWORD PTR [rip+0x12ad4]        # 4193c0 <cv+0x10>
  4068eb:	00 
  4068ec:	4c 8d 05 bd 1b 01 00 	lea    r8,[rip+0x11bbd]        # 4184b0 <Tbl_addr>
  4068f3:	66 41 0f 58 1c d0    	addpd  xmm3,XMMWORD PTR [r8+rdx*8]
  4068f9:	f3 0f 7e ce          	movq   xmm1,xmm6
  4068fd:	f2 0f 59 f6          	mulsd  xmm6,xmm6
  406901:	f2 0f 59 c6          	mulsd  xmm0,xmm6
  406905:	f2 0f 59 ce          	mulsd  xmm1,xmm6
  406909:	f2 0f 59 e9          	mulsd  xmm5,xmm1
  40690d:	f2 0f 59 ce          	mulsd  xmm1,xmm6
  406911:	f2 0f 58 c2          	addsd  xmm0,xmm2
  406915:	66 0f ef f6          	pxor   xmm6,xmm6
  406919:	f2 0f 59 c1          	mulsd  xmm0,xmm1
  40691d:	f2 0f 58 eb          	addsd  xmm5,xmm3
  406921:	f2 0f 58 c5          	addsd  xmm0,xmm5
  406925:	25 00 80 00 00       	and    eax,0x8000
  40692a:	66 0f c4 f0 03       	pinsrw xmm6,eax,0x3
  40692f:	f3 0f 7e ec          	movq   xmm5,xmm4
  406933:	66 0f 70 db ee       	pshufd xmm3,xmm3,0xee
  406938:	f2 0f 58 e3          	addsd  xmm4,xmm3
  40693c:	f2 0f 5c dc          	subsd  xmm3,xmm4
  406940:	f2 0f 58 eb          	addsd  xmm5,xmm3
  406944:	f2 0f 58 c5          	addsd  xmm0,xmm5
  406948:	f2 0f 58 c4          	addsd  xmm0,xmm4
  40694c:	66 0f 57 c6          	xorpd  xmm0,xmm6
  406950:	e9 71 02 00 00       	jmp    406bc6 <__libm_acos_ex+0x4e6>
  406955:	05 bb 3b 00 00       	add    eax,0x3bbb
  40695a:	3d 00 38 00 00       	cmp    eax,0x3800
  40695f:	0f 83 84 00 00 00    	jae    4069e9 <__libm_acos_ex+0x309>
  406965:	66 0f 14 c0          	unpcklpd xmm0,xmm0
  406969:	66 0f 28 35 7f 2a 01 	movapd xmm6,XMMWORD PTR [rip+0x12a7f]        # 4193f0 <cv2>
  406970:	00 
  406971:	66 0f 14 c8          	unpcklpd xmm1,xmm0
  406975:	66 0f 28 15 83 2a 01 	movapd xmm2,XMMWORD PTR [rip+0x12a83]        # 419400 <cv2+0x10>
  40697c:	00 
  40697d:	66 0f 28 25 8b 2a 01 	movapd xmm4,XMMWORD PTR [rip+0x12a8b]        # 419410 <cv2+0x20>
  406984:	00 
  406985:	66 0f 59 c0          	mulpd  xmm0,xmm0
  406989:	66 0f 28 2d 3f 2a 01 	movapd xmm5,XMMWORD PTR [rip+0x12a3f]        # 4193d0 <PI_BY_2>
  406990:	00 
  406991:	66 0f 59 c8          	mulpd  xmm1,xmm0
  406995:	66 0f 59 f0          	mulpd  xmm6,xmm0
  406999:	66 0f 59 c0          	mulpd  xmm0,xmm0
  40699d:	f3 0f 7e d9          	movq   xmm3,xmm1
  4069a1:	f2 0f 59 c9          	mulsd  xmm1,xmm1
  4069a5:	66 0f 58 f2          	addpd  xmm6,xmm2
  4069a9:	66 0f 59 e0          	mulpd  xmm4,xmm0
  4069ad:	f2 0f 59 cb          	mulsd  xmm1,xmm3
  4069b1:	66 0f 58 f4          	addpd  xmm6,xmm4
  4069b5:	66 0f 70 c5 ee       	pshufd xmm0,xmm5,0xee
  4069ba:	66 0f 59 ce          	mulpd  xmm1,xmm6
  4069be:	66 0f 70 f5 ee       	pshufd xmm6,xmm5,0xee
  4069c3:	f2 0f 5c c7          	subsd  xmm0,xmm7
  4069c7:	66 0f 70 d1 ee       	pshufd xmm2,xmm1,0xee
  4069cc:	f2 0f 5c e9          	subsd  xmm5,xmm1
  4069d0:	f2 0f 5c f0          	subsd  xmm6,xmm0
  4069d4:	f2 0f 5c ea          	subsd  xmm5,xmm2
  4069d8:	f2 0f 5c fe          	subsd  xmm7,xmm6
  4069dc:	f2 0f 5c ef          	subsd  xmm5,xmm7
  4069e0:	f2 0f 58 c5          	addsd  xmm0,xmm5
  4069e4:	e9 dd 01 00 00       	jmp    406bc6 <__libm_acos_ex+0x4e6>
  4069e9:	2d fc 3b 00 00       	sub    eax,0x3bfc
  4069ee:	83 f8 04             	cmp    eax,0x4
  4069f1:	0f 83 e8 00 00 00    	jae    406adf <__libm_acos_ex+0x3ff>
  4069f7:	66 0f 57 f6          	xorpd  xmm6,xmm6
  4069fb:	66 0f 54 3d 8d 12 01 	andpd  xmm7,XMMWORD PTR [rip+0x1128d]        # 417c90 <ABSVALMASK>
  406a02:	00 
  406a03:	f2 0f 10 25 25 2a 01 	movsd  xmm4,QWORD PTR [rip+0x12a25]        # 419430 <ONE_BY_2>
  406a0a:	00 
  406a0b:	66 0f 28 0d dd 29 01 	movapd xmm1,XMMWORD PTR [rip+0x129dd]        # 4193f0 <cv2>
  406a12:	00 
  406a13:	f2 0f 59 fc          	mulsd  xmm7,xmm4
